                Time          Cycles PC       Instr    Mnemonic
            18880000             455 00000080 00c0006f jal              x0, 12             
            18960000             457 0000008c 00000093 addi             x1, x0, 0            x1=00000000
            19000000             458 00000090 00008113 addi             x2, x1, 0            x2=00000000  x1:00000000
            19040000             459 00000094 00008193 addi             x3, x1, 0            x3=00000000  x1:00000000
            19080000             460 00000098 00008213 addi             x4, x1, 0            x4=00000000  x1:00000000
            19120000             461 0000009c 00008293 addi             x5, x1, 0            x5=00000000  x1:00000000
            19160000             462 000000a0 00008313 addi             x6, x1, 0            x6=00000000  x1:00000000
            19200000             463 000000a4 00008393 addi             x7, x1, 0            x7=00000000  x1:00000000
            19240000             464 000000a8 00008413 addi             x8, x1, 0            x8=00000000  x1:00000000
            19280000             465 000000ac 00008493 addi             x9, x1, 0            x9=00000000  x1:00000000
            19320000             466 000000b0 00008513 addi             x10, x1, 0          x10=00000000  x1:00000000
            19360000             467 000000b4 00008593 addi             x11, x1, 0          x11=00000000  x1:00000000
            19400000             468 000000b8 00008613 addi             x12, x1, 0          x12=00000000  x1:00000000
            19440000             469 000000bc 00008693 addi             x13, x1, 0          x13=00000000  x1:00000000
            19480000             470 000000c0 00008713 addi             x14, x1, 0          x14=00000000  x1:00000000
            19520000             471 000000c4 00008793 addi             x15, x1, 0          x15=00000000  x1:00000000
            19560000             472 000000c8 00008813 addi             x16, x1, 0          x16=00000000  x1:00000000
            19600000             473 000000cc 00008893 addi             x17, x1, 0          x17=00000000  x1:00000000
            19640000             474 000000d0 00008913 addi             x18, x1, 0          x18=00000000  x1:00000000
            19680000             475 000000d4 00008993 addi             x19, x1, 0          x19=00000000  x1:00000000
            19720000             476 000000d8 00008a13 addi             x20, x1, 0          x20=00000000  x1:00000000
            19760000             477 000000dc 00008a93 addi             x21, x1, 0          x21=00000000  x1:00000000
            19800000             478 000000e0 00008b13 addi             x22, x1, 0          x22=00000000  x1:00000000
            19840000             479 000000e4 00008b93 addi             x23, x1, 0          x23=00000000  x1:00000000
            19880000             480 000000e8 00008c13 addi             x24, x1, 0          x24=00000000  x1:00000000
            19920000             481 000000ec 00008c93 addi             x25, x1, 0          x25=00000000  x1:00000000
            19960000             482 000000f0 00008d13 addi             x26, x1, 0          x26=00000000  x1:00000000
            20000000             483 000000f4 00008d93 addi             x27, x1, 0          x27=00000000  x1:00000000
            20040000             484 000000f8 00008e13 addi             x28, x1, 0          x28=00000000  x1:00000000
            20080000             485 000000fc 00008e93 addi             x29, x1, 0          x29=00000000  x1:00000000
            20120000             486 00000100 00008f13 addi             x30, x1, 0          x30=00000000  x1:00000000
            20160000             487 00000104 00008f93 addi             x31, x1, 0          x31=00000000  x1:00000000
            20200000             488 00000108 00108117 auipc            x2, 0x108000         x2=00108108
            20240000             489 0000010c ef810113 addi             x2, x2, -264         x2=00108000  x2:00108108
            20280000             490 00000110 00100d17 auipc            x26, 0x100000       x26=00100110
            20320000             491 00000114 3c0d0d13 addi             x26, x26, 960       x26=001004d0 x26:00100110
            20360000             492 00000118 00100d97 auipc            x27, 0x100000       x27=00100118
            20400000             493 0000011c 430d8d93 addi             x27, x27, 1072      x27=00100548 x27:00100118
            20440000             494 00000120 01bd5863 bge              x26, x27, 16        x26:001004d0 x27:00100548
            20480000             495 00000124 000d2023 sw               x0, 0(x26)          x26:001004d0  PA:001004d0
            20520000             496 00000128 004d0d13 addi             x26, x26, 4         x26=001004d4 x26:001004d0
            20560000             497 0000012c ffaddce3 bge              x27, x26, -8        x27:00100548 x26:001004d4
            20680000             500 00000124 000d2023 sw               x0, 0(x26)          x26:001004d4  PA:001004d4
            20720000             501 00000128 004d0d13 addi             x26, x26, 4         x26=001004d8 x26:001004d4
            20760000             502 0000012c ffaddce3 bge              x27, x26, -8        x27:00100548 x26:001004d8
            20880000             505 00000124 000d2023 sw               x0, 0(x26)          x26:001004d8  PA:001004d8
            20920000             506 00000128 004d0d13 addi             x26, x26, 4         x26=001004dc x26:001004d8
            20960000             507 0000012c ffaddce3 bge              x27, x26, -8        x27:00100548 x26:001004dc
            21080000             510 00000124 000d2023 sw               x0, 0(x26)          x26:001004dc  PA:001004dc
            21120000             511 00000128 004d0d13 addi             x26, x26, 4         x26=001004e0 x26:001004dc
            21160000             512 0000012c ffaddce3 bge              x27, x26, -8        x27:00100548 x26:001004e0
            21280000             515 00000124 000d2023 sw               x0, 0(x26)          x26:001004e0  PA:001004e0
            21320000             516 00000128 004d0d13 addi             x26, x26, 4         x26=001004e4 x26:001004e0
            21360000             517 0000012c ffaddce3 bge              x27, x26, -8        x27:00100548 x26:001004e4
            21480000             520 00000124 000d2023 sw               x0, 0(x26)          x26:001004e4  PA:001004e4
            21520000             521 00000128 004d0d13 addi             x26, x26, 4         x26=001004e8 x26:001004e4
            21560000             522 0000012c ffaddce3 bge              x27, x26, -8        x27:00100548 x26:001004e8
            21680000             525 00000124 000d2023 sw               x0, 0(x26)          x26:001004e8  PA:001004e8
            21720000             526 00000128 004d0d13 addi             x26, x26, 4         x26=001004ec x26:001004e8
            21760000             527 0000012c ffaddce3 bge              x27, x26, -8        x27:00100548 x26:001004ec
            21880000             530 00000124 000d2023 sw               x0, 0(x26)          x26:001004ec  PA:001004ec
            21920000             531 00000128 004d0d13 addi             x26, x26, 4         x26=001004f0 x26:001004ec
            21960000             532 0000012c ffaddce3 bge              x27, x26, -8        x27:00100548 x26:001004f0
            22080000             535 00000124 000d2023 sw               x0, 0(x26)          x26:001004f0  PA:001004f0
            22120000             536 00000128 004d0d13 addi             x26, x26, 4         x26=001004f4 x26:001004f0
            22160000             537 0000012c ffaddce3 bge              x27, x26, -8        x27:00100548 x26:001004f4
            22280000             540 00000124 000d2023 sw               x0, 0(x26)          x26:001004f4  PA:001004f4
            22320000             541 00000128 004d0d13 addi             x26, x26, 4         x26=001004f8 x26:001004f4
            22360000             542 0000012c ffaddce3 bge              x27, x26, -8        x27:00100548 x26:001004f8
            22480000             545 00000124 000d2023 sw               x0, 0(x26)          x26:001004f8  PA:001004f8
            22520000             546 00000128 004d0d13 addi             x26, x26, 4         x26=001004fc x26:001004f8
            22560000             547 0000012c ffaddce3 bge              x27, x26, -8        x27:00100548 x26:001004fc
            22680000             550 00000124 000d2023 sw               x0, 0(x26)          x26:001004fc  PA:001004fc
            22720000             551 00000128 004d0d13 addi             x26, x26, 4         x26=00100500 x26:001004fc
            22760000             552 0000012c ffaddce3 bge              x27, x26, -8        x27:00100548 x26:00100500
            22880000             555 00000124 000d2023 sw               x0, 0(x26)          x26:00100500  PA:00100500
            22920000             556 00000128 004d0d13 addi             x26, x26, 4         x26=00100504 x26:00100500
            22960000             557 0000012c ffaddce3 bge              x27, x26, -8        x27:00100548 x26:00100504
            23080000             560 00000124 000d2023 sw               x0, 0(x26)          x26:00100504  PA:00100504
            23120000             561 00000128 004d0d13 addi             x26, x26, 4         x26=00100508 x26:00100504
            23160000             562 0000012c ffaddce3 bge              x27, x26, -8        x27:00100548 x26:00100508
            23280000             565 00000124 000d2023 sw               x0, 0(x26)          x26:00100508  PA:00100508
            23320000             566 00000128 004d0d13 addi             x26, x26, 4         x26=0010050c x26:00100508
            23360000             567 0000012c ffaddce3 bge              x27, x26, -8        x27:00100548 x26:0010050c
            23480000             570 00000124 000d2023 sw               x0, 0(x26)          x26:0010050c  PA:0010050c
            23520000             571 00000128 004d0d13 addi             x26, x26, 4         x26=00100510 x26:0010050c
            23560000             572 0000012c ffaddce3 bge              x27, x26, -8        x27:00100548 x26:00100510
            23680000             575 00000124 000d2023 sw               x0, 0(x26)          x26:00100510  PA:00100510
            23720000             576 00000128 004d0d13 addi             x26, x26, 4         x26=00100514 x26:00100510
            23760000             577 0000012c ffaddce3 bge              x27, x26, -8        x27:00100548 x26:00100514
            23880000             580 00000124 000d2023 sw               x0, 0(x26)          x26:00100514  PA:00100514
            23920000             581 00000128 004d0d13 addi             x26, x26, 4         x26=00100518 x26:00100514
            23960000             582 0000012c ffaddce3 bge              x27, x26, -8        x27:00100548 x26:00100518
            24080000             585 00000124 000d2023 sw               x0, 0(x26)          x26:00100518  PA:00100518
            24120000             586 00000128 004d0d13 addi             x26, x26, 4         x26=0010051c x26:00100518
            24160000             587 0000012c ffaddce3 bge              x27, x26, -8        x27:00100548 x26:0010051c
            24280000             590 00000124 000d2023 sw               x0, 0(x26)          x26:0010051c  PA:0010051c
            24320000             591 00000128 004d0d13 addi             x26, x26, 4         x26=00100520 x26:0010051c
            24360000             592 0000012c ffaddce3 bge              x27, x26, -8        x27:00100548 x26:00100520
            24480000             595 00000124 000d2023 sw               x0, 0(x26)          x26:00100520  PA:00100520
            24520000             596 00000128 004d0d13 addi             x26, x26, 4         x26=00100524 x26:00100520
            24560000             597 0000012c ffaddce3 bge              x27, x26, -8        x27:00100548 x26:00100524
            24680000             600 00000124 000d2023 sw               x0, 0(x26)          x26:00100524  PA:00100524
            24720000             601 00000128 004d0d13 addi             x26, x26, 4         x26=00100528 x26:00100524
            24760000             602 0000012c ffaddce3 bge              x27, x26, -8        x27:00100548 x26:00100528
            24880000             605 00000124 000d2023 sw               x0, 0(x26)          x26:00100528  PA:00100528
            24920000             606 00000128 004d0d13 addi             x26, x26, 4         x26=0010052c x26:00100528
            24960000             607 0000012c ffaddce3 bge              x27, x26, -8        x27:00100548 x26:0010052c
            25080000             610 00000124 000d2023 sw               x0, 0(x26)          x26:0010052c  PA:0010052c
            25120000             611 00000128 004d0d13 addi             x26, x26, 4         x26=00100530 x26:0010052c
            25160000             612 0000012c ffaddce3 bge              x27, x26, -8        x27:00100548 x26:00100530
            25280000             615 00000124 000d2023 sw               x0, 0(x26)          x26:00100530  PA:00100530
            25320000             616 00000128 004d0d13 addi             x26, x26, 4         x26=00100534 x26:00100530
            25360000             617 0000012c ffaddce3 bge              x27, x26, -8        x27:00100548 x26:00100534
            25480000             620 00000124 000d2023 sw               x0, 0(x26)          x26:00100534  PA:00100534
            25520000             621 00000128 004d0d13 addi             x26, x26, 4         x26=00100538 x26:00100534
            25560000             622 0000012c ffaddce3 bge              x27, x26, -8        x27:00100548 x26:00100538
            25680000             625 00000124 000d2023 sw               x0, 0(x26)          x26:00100538  PA:00100538
            25720000             626 00000128 004d0d13 addi             x26, x26, 4         x26=0010053c x26:00100538
            25760000             627 0000012c ffaddce3 bge              x27, x26, -8        x27:00100548 x26:0010053c
            25880000             630 00000124 000d2023 sw               x0, 0(x26)          x26:0010053c  PA:0010053c
            25920000             631 00000128 004d0d13 addi             x26, x26, 4         x26=00100540 x26:0010053c
            25960000             632 0000012c ffaddce3 bge              x27, x26, -8        x27:00100548 x26:00100540
            26080000             635 00000124 000d2023 sw               x0, 0(x26)          x26:00100540  PA:00100540
            26120000             636 00000128 004d0d13 addi             x26, x26, 4         x26=00100544 x26:00100540
            26160000             637 0000012c ffaddce3 bge              x27, x26, -8        x27:00100548 x26:00100544
            26280000             640 00000124 000d2023 sw               x0, 0(x26)          x26:00100544  PA:00100544
            26320000             641 00000128 004d0d13 addi             x26, x26, 4         x26=00100548 x26:00100544
            26360000             642 0000012c ffaddce3 bge              x27, x26, -8        x27:00100548 x26:00100548
            26480000             645 00000124 000d2023 sw               x0, 0(x26)          x26:00100548  PA:00100548
            26520000             646 00000128 004d0d13 addi             x26, x26, 4         x26=0010054c x26:00100548
            26560000             647 0000012c ffaddce3 bge              x27, x26, -8        x27:00100548 x26:0010054c
            26600000             648 00000130 210000ef jal              x1, 528              x1=00000134
            26680000             650 00000340 ff010113 addi             x2, x2, -16          x2=00107ff0  x2:00108000
            26720000             651 00000344 00812423 sw               x8, 8(x2)            x8:00000000  x2:00107ff0  PA:00107ff8
            26760000             652 00000348 001007b7 lui              x15, 0x100000       x15=00100000
            26800000             653 0000034c 00100437 lui              x8, 0x100000         x8=00100000
            26840000             654 00000350 01212023 sw               x18, 0(x2)          x18:00000000  x2:00107ff0  PA:00107ff0
            26880000             655 00000354 00078793 addi             x15, x15, 0         x15=00100000 x15:00100000
            26920000             656 00000358 00040913 addi             x18, x8, 0          x18=00100000  x8:00100000
            26960000             657 0000035c 41278933 sub              x18, x15, x18       x18=00000000 x15:00100000 x18:00100000
            27000000             658 00000360 40295913 srai             x18, x18, 0x402     x18=00000000 x18:00000000
            27040000             659 00000364 00912223 sw               x9, 4(x2)            x9:00000000  x2:00107ff0  PA:00107ff4
            27080000             660 00000368 00112623 sw               x1, 12(x2)           x1:00000134  x2:00107ff0  PA:00107ffc
            27120000             661 0000036c 00040413 addi             x8, x8, 0            x8=00100000  x8:00100000
            27160000             662 00000370 00000493 addi             x9, x0, 0            x9=00000000
            27200000             663 00000374 00090c63 beq              x18, x0, 24         x18:00000000
            27320000             666 0000038c 00100437 lui              x8, 0x100000         x8=00100000
            27360000             667 00000390 fadff0ef jal              x1, -84              x1=00000394
            27440000             669 0000033c 00008067 jalr             x0, x1, 0            x1:00000394
            27520000             671 00000394 001007b7 lui              x15, 0x100000       x15=00100000
            27560000             672 00000398 00040913 addi             x18, x8, 0          x18=00100000  x8:00100000
            27600000             673 0000039c 00078793 addi             x15, x15, 0         x15=00100000 x15:00100000
            27640000             674 000003a0 41278933 sub              x18, x15, x18       x18=00000000 x15:00100000 x18:00100000
            27680000             675 000003a4 40295913 srai             x18, x18, 0x402     x18=00000000 x18:00000000
            27720000             676 000003a8 00040413 addi             x8, x8, 0            x8=00100000  x8:00100000
            27760000             677 000003ac 00000493 addi             x9, x0, 0            x9=00000000
            27800000             678 000003b0 00090c63 beq              x18, x0, 24         x18:00000000
            27920000             681 000003c8 00c12083 lw               x1, 12(x2)           x1=00000134  x2:00107ff0  PA:00107ffc
            27960000             682 000003cc 00812403 lw               x8, 8(x2)            x8=00000000  x2:00107ff0  PA:00107ff8
            28000000             683 000003d0 00412483 lw               x9, 4(x2)            x9=00000000  x2:00107ff0  PA:00107ff4
            28040000             684 000003d4 00012903 lw               x18, 0(x2)          x18=00000000  x2:00107ff0  PA:00107ff0
            28080000             685 000003d8 01010113 addi             x2, x2, 16           x2=00108000  x2:00107ff0
            28120000             686 000003dc 00008067 jalr             x0, x1, 0            x1:00000134
            28200000             688 00000134 00000513 addi             x10, x0, 0          x10=00000000
            28240000             689 00000138 00100593 addi             x11, x0, 1          x11=00000001
            28280000             690 0000013c 44c010ef jal              x1, 5196             x1=00000140
            28360000             692 00001588 1a107737 lui              x14, 0x1a107000     x14=1a107000
            28400000             693 0000158c 00470713 addi             x14, x14, 4         x14=1a107004 x14:1a107000
            28440000             694 00001590 00072603 lw               x12, 0(x14)         x12=ffffffff x14:1a107004  PA:1a107004
            28480000             695 00001594 1a1007b7 lui              x15, 0x1a100000     x15=1a100000
            28680000             700 00001598 c0164633 p.bclr           x12, x12, 0, 1      x12=ffffffff x12:ffffffff
            28720000             701 0000159c 00c72023 sw               x12, 0(x14)         x12:ffffffff x14:1a107004  PA:1a107004
            28760000             702 000015a0 00478693 addi             x13, x15, 4         x13=1a100004 x15:1a100000
            29000000             708 000015a4 00c78513 addi             x10, x15, 12        x10=1a10000c x15:1a100000
            29040000             709 000015a8 0085d813 srli             x16, x11, 0x8       x16=00000000 x11:00000001
            29080000             710 000015ac 08300713 addi             x14, x0, 131        x14=00000083
            29120000             711 000015b0 0ff5f593 andi             x11, x11, 255       x11=00000001 x11:00000001
            29160000             712 000015b4 00e52023 sw               x14, 0(x10)         x14:00000083 x10:1a10000c  PA:1a10000c
            29200000             713 000015b8 0106a023 sw               x16, 0(x13)         x16:00000000 x13:1a100004  PA:1a100004
            29480000             720 000015bc 0a700713 addi             x14, x0, 167        x14=000000a7
            29720000             726 000015c0 00b7a42b p.sw             x11, 8(x15!)        x15=1a100008 x11:00000001 x15:1a100000  PA:1a100000
            29760000             727 000015c4 00e7a023 sw               x14, 0(x15)         x14:000000a7 x15:1a100008  PA:1a100008
            30040000             734 000015c8 00300793 addi             x15, x0, 3          x15=00000003
            30280000             740 000015cc 00f52023 sw               x15, 0(x10)         x15:00000003 x10:1a10000c  PA:1a10000c
            30320000             741 000015d0 0006a783 lw               x15, 0(x13)         x15=00000000 x13:1a100004  PA:1a100004
            30800000             753 000015d4 0f07f793 andi             x15, x15, 240       x15=00000000 x15:00000000
            30840000             754 000015d8 c017c7b3 p.bclr           x15, x15, 0, 1      x15=00000002 x15:00000000
            30880000             755 000015dc 00f6a023 sw               x15, 0(x13)         x15:00000002 x13:1a100004  PA:1a100004
            30920000             756 000015e0 00008067 jalr             x0, x1, 0            x1:00000140
            31200000             763 00000140 00000513 addi             x10, x0, 0          x10=00000000
            31240000             764 00000144 00000593 addi             x11, x0, 0          x11=00000000
            31280000             765 00000148 2a8000ef jal              x1, 680              x1=0000014c
            31360000             767 000003f0 00100537 lui              x10, 0x100000       x10=00100000
            31400000             768 000003f4 ff010113 addi             x2, x2, -16          x2=00107ff0  x2:00108000
            31440000             769 000003f8 00050513 addi             x10, x10, 0         x10=00100000 x10:00100000
            31480000             770 000003fc 00112623 sw               x1, 12(x2)           x1:0000014c  x2:00107ff0  PA:00107ffc
            31520000             771 00000400 000010ef jal              x1, 4096             x1=00000404
            31600000             773 00001400 ff010113 addi             x2, x2, -16          x2=00107fe0  x2:00107ff0
            31640000             774 00001404 00812423 sw               x8, 8(x2)            x8:00000000  x2:00107fe0  PA:00107fe8
            31680000             775 00001408 00112623 sw               x1, 12(x2)           x1:00000404  x2:00107fe0  PA:00107fec
            31720000             776 0000140c 00912223 sw               x9, 4(x2)            x9:00000000  x2:00107fe0  PA:00107fe4
            31760000             777 00001410 00050413 addi             x8, x10, 0           x8=00100000 x10:00100000
            31800000             778 00001414 00054503 lbu              x10, 0(x10)         x10=00000048 x10:00100000  PA:00100000
            31880000             780 00001418 02050e63 beq              x10, x0, 60         x10:00000048
            31920000             781 0000141c 00140413 addi             x8, x8, 1            x8=00100001  x8:00100000
            31960000             782 00001420 00000493 addi             x9, x0, 0            x9=00000000
            32000000             783 00001424 1c0000ef jal              x1, 448              x1=00001428
            32080000             785 000015e4 1a100737 lui              x14, 0x1a100000     x14=1a100000
            32120000             786 000015e8 01470713 addi             x14, x14, 20        x14=1a100014 x14:1a100000
            32160000             787 000015ec 00072783 lw               x15, 0(x14)         x15=00000060 x14:1a100014  PA:1a100014
            32400000             793 000015f0 0207f793 andi             x15, x15, 32        x15=00000020 x15:00000060
            32440000             794 000015f4 fe078ce3 beq              x15, x0, -8         x15:00000020
            32480000             795 000015f8 1a1007b7 lui              x15, 0x1a100000     x15=1a100000
            32520000             796 000015fc 00a7a023 sw               x10, 0(x15)         x10:00000048 x15:1a100000  PA:1a100000
            32560000             797 00001600 00008067 jalr             x0, x1, 0            x1:00001428
            32840000             804 00001428 0014450b p.lbu            x10, 1(x8!)         x10=00000065  x8=00100002  x8:00100001  PA:00100001
            32880000             805 0000142c 00148493 addi             x9, x9, 1            x9=00000001  x9:00000000
            32920000             806 00001430 fe051ae3 bne              x10, x0, -12        x10:00000065
            33040000             809 00001424 1c0000ef jal              x1, 448              x1=00001428
            33120000             811 000015e4 1a100737 lui              x14, 0x1a100000     x14=1a100000
            33160000             812 000015e8 01470713 addi             x14, x14, 20        x14=1a100014 x14:1a100000
            33200000             813 000015ec 00072783 lw               x15, 0(x14)         x15=00000020 x14:1a100014  PA:1a100014
            33440000             819 000015f0 0207f793 andi             x15, x15, 32        x15=00000020 x15:00000020
            33480000             820 000015f4 fe078ce3 beq              x15, x0, -8         x15:00000020
            33520000             821 000015f8 1a1007b7 lui              x15, 0x1a100000     x15=1a100000
            33560000             822 000015fc 00a7a023 sw               x10, 0(x15)         x10:00000065 x15:1a100000  PA:1a100000
            33600000             823 00001600 00008067 jalr             x0, x1, 0            x1:00001428
            33880000             830 00001428 0014450b p.lbu            x10, 1(x8!)         x10=0000006c  x8=00100003  x8:00100002  PA:00100002
            33920000             831 0000142c 00148493 addi             x9, x9, 1            x9=00000002  x9:00000001
            33960000             832 00001430 fe051ae3 bne              x10, x0, -12        x10:0000006c
            34080000             835 00001424 1c0000ef jal              x1, 448              x1=00001428
            34160000             837 000015e4 1a100737 lui              x14, 0x1a100000     x14=1a100000
            34200000             838 000015e8 01470713 addi             x14, x14, 20        x14=1a100014 x14:1a100000
            34240000             839 000015ec 00072783 lw               x15, 0(x14)         x15=00000020 x14:1a100014  PA:1a100014
            34480000             845 000015f0 0207f793 andi             x15, x15, 32        x15=00000020 x15:00000020
            34520000             846 000015f4 fe078ce3 beq              x15, x0, -8         x15:00000020
            34560000             847 000015f8 1a1007b7 lui              x15, 0x1a100000     x15=1a100000
            34600000             848 000015fc 00a7a023 sw               x10, 0(x15)         x10:0000006c x15:1a100000  PA:1a100000
            34640000             849 00001600 00008067 jalr             x0, x1, 0            x1:00001428
            34920000             856 00001428 0014450b p.lbu            x10, 1(x8!)         x10=0000006c  x8=00100004  x8:00100003  PA:00100003
            34960000             857 0000142c 00148493 addi             x9, x9, 1            x9=00000003  x9:00000002
            35000000             858 00001430 fe051ae3 bne              x10, x0, -12        x10:0000006c
            35120000             861 00001424 1c0000ef jal              x1, 448              x1=00001428
            35200000             863 000015e4 1a100737 lui              x14, 0x1a100000     x14=1a100000
            35240000             864 000015e8 01470713 addi             x14, x14, 20        x14=1a100014 x14:1a100000
            35280000             865 000015ec 00072783 lw               x15, 0(x14)         x15=00000020 x14:1a100014  PA:1a100014
            35520000             871 000015f0 0207f793 andi             x15, x15, 32        x15=00000020 x15:00000020
            35560000             872 000015f4 fe078ce3 beq              x15, x0, -8         x15:00000020
            35600000             873 000015f8 1a1007b7 lui              x15, 0x1a100000     x15=1a100000
            35640000             874 000015fc 00a7a023 sw               x10, 0(x15)         x10:0000006c x15:1a100000  PA:1a100000
            35680000             875 00001600 00008067 jalr             x0, x1, 0            x1:00001428
            35960000             882 00001428 0014450b p.lbu            x10, 1(x8!)         x10=0000006f  x8=00100005  x8:00100004  PA:00100004
            36000000             883 0000142c 00148493 addi             x9, x9, 1            x9=00000004  x9:00000003
            36040000             884 00001430 fe051ae3 bne              x10, x0, -12        x10:0000006f
            36160000             887 00001424 1c0000ef jal              x1, 448              x1=00001428
            36240000             889 000015e4 1a100737 lui              x14, 0x1a100000     x14=1a100000
            36280000             890 000015e8 01470713 addi             x14, x14, 20        x14=1a100014 x14:1a100000
            36320000             891 000015ec 00072783 lw               x15, 0(x14)         x15=00000020 x14:1a100014  PA:1a100014
            36560000             897 000015f0 0207f793 andi             x15, x15, 32        x15=00000020 x15:00000020
            36600000             898 000015f4 fe078ce3 beq              x15, x0, -8         x15:00000020
            36640000             899 000015f8 1a1007b7 lui              x15, 0x1a100000     x15=1a100000
            36680000             900 000015fc 00a7a023 sw               x10, 0(x15)         x10:0000006f x15:1a100000  PA:1a100000
            36720000             901 00001600 00008067 jalr             x0, x1, 0            x1:00001428
            37000000             908 00001428 0014450b p.lbu            x10, 1(x8!)         x10=00000020  x8=00100006  x8:00100005  PA:00100005
            37040000             909 0000142c 00148493 addi             x9, x9, 1            x9=00000005  x9:00000004
            37080000             910 00001430 fe051ae3 bne              x10, x0, -12        x10:00000020
            37200000             913 00001424 1c0000ef jal              x1, 448              x1=00001428
            37280000             915 000015e4 1a100737 lui              x14, 0x1a100000     x14=1a100000
            37320000             916 000015e8 01470713 addi             x14, x14, 20        x14=1a100014 x14:1a100000
            37360000             917 000015ec 00072783 lw               x15, 0(x14)         x15=00000020 x14:1a100014  PA:1a100014
            37600000             923 000015f0 0207f793 andi             x15, x15, 32        x15=00000020 x15:00000020
            37640000             924 000015f4 fe078ce3 beq              x15, x0, -8         x15:00000020
            37680000             925 000015f8 1a1007b7 lui              x15, 0x1a100000     x15=1a100000
            37720000             926 000015fc 00a7a023 sw               x10, 0(x15)         x10:00000020 x15:1a100000  PA:1a100000
            37760000             927 00001600 00008067 jalr             x0, x1, 0            x1:00001428
            38040000             934 00001428 0014450b p.lbu            x10, 1(x8!)         x10=00000057  x8=00100007  x8:00100006  PA:00100006
            38080000             935 0000142c 00148493 addi             x9, x9, 1            x9=00000006  x9:00000005
            38120000             936 00001430 fe051ae3 bne              x10, x0, -12        x10:00000057
            38240000             939 00001424 1c0000ef jal              x1, 448              x1=00001428
            38320000             941 000015e4 1a100737 lui              x14, 0x1a100000     x14=1a100000
            38360000             942 000015e8 01470713 addi             x14, x14, 20        x14=1a100014 x14:1a100000
            38400000             943 000015ec 00072783 lw               x15, 0(x14)         x15=00000020 x14:1a100014  PA:1a100014
            38640000             949 000015f0 0207f793 andi             x15, x15, 32        x15=00000020 x15:00000020
            38680000             950 000015f4 fe078ce3 beq              x15, x0, -8         x15:00000020
            38720000             951 000015f8 1a1007b7 lui              x15, 0x1a100000     x15=1a100000
            38760000             952 000015fc 00a7a023 sw               x10, 0(x15)         x10:00000057 x15:1a100000  PA:1a100000
            38800000             953 00001600 00008067 jalr             x0, x1, 0            x1:00001428
            39080000             960 00001428 0014450b p.lbu            x10, 1(x8!)         x10=0000006f  x8=00100008  x8:00100007  PA:00100007
            39120000             961 0000142c 00148493 addi             x9, x9, 1            x9=00000007  x9:00000006
            39160000             962 00001430 fe051ae3 bne              x10, x0, -12        x10:0000006f
            39280000             965 00001424 1c0000ef jal              x1, 448              x1=00001428
            39360000             967 000015e4 1a100737 lui              x14, 0x1a100000     x14=1a100000
            39400000             968 000015e8 01470713 addi             x14, x14, 20        x14=1a100014 x14:1a100000
            39440000             969 000015ec 00072783 lw               x15, 0(x14)         x15=00000020 x14:1a100014  PA:1a100014
            39680000             975 000015f0 0207f793 andi             x15, x15, 32        x15=00000020 x15:00000020
            39720000             976 000015f4 fe078ce3 beq              x15, x0, -8         x15:00000020
            39760000             977 000015f8 1a1007b7 lui              x15, 0x1a100000     x15=1a100000
            39800000             978 000015fc 00a7a023 sw               x10, 0(x15)         x10:0000006f x15:1a100000  PA:1a100000
            39840000             979 00001600 00008067 jalr             x0, x1, 0            x1:00001428
            40120000             986 00001428 0014450b p.lbu            x10, 1(x8!)         x10=00000072  x8=00100009  x8:00100008  PA:00100008
            40160000             987 0000142c 00148493 addi             x9, x9, 1            x9=00000008  x9:00000007
            40200000             988 00001430 fe051ae3 bne              x10, x0, -12        x10:00000072
            40320000             991 00001424 1c0000ef jal              x1, 448              x1=00001428
            40400000             993 000015e4 1a100737 lui              x14, 0x1a100000     x14=1a100000
            40440000             994 000015e8 01470713 addi             x14, x14, 20        x14=1a100014 x14:1a100000
            40480000             995 000015ec 00072783 lw               x15, 0(x14)         x15=00000020 x14:1a100014  PA:1a100014
            40720000            1001 000015f0 0207f793 andi             x15, x15, 32        x15=00000020 x15:00000020
            40760000            1002 000015f4 fe078ce3 beq              x15, x0, -8         x15:00000020
            40800000            1003 000015f8 1a1007b7 lui              x15, 0x1a100000     x15=1a100000
            40840000            1004 000015fc 00a7a023 sw               x10, 0(x15)         x10:00000072 x15:1a100000  PA:1a100000
            40880000            1005 00001600 00008067 jalr             x0, x1, 0            x1:00001428
            41160000            1012 00001428 0014450b p.lbu            x10, 1(x8!)         x10=0000006c  x8=0010000a  x8:00100009  PA:00100009
            41200000            1013 0000142c 00148493 addi             x9, x9, 1            x9=00000009  x9:00000008
            41240000            1014 00001430 fe051ae3 bne              x10, x0, -12        x10:0000006c
            41360000            1017 00001424 1c0000ef jal              x1, 448              x1=00001428
            41440000            1019 000015e4 1a100737 lui              x14, 0x1a100000     x14=1a100000
            41480000            1020 000015e8 01470713 addi             x14, x14, 20        x14=1a100014 x14:1a100000
            41520000            1021 000015ec 00072783 lw               x15, 0(x14)         x15=00000020 x14:1a100014  PA:1a100014
            41760000            1027 000015f0 0207f793 andi             x15, x15, 32        x15=00000020 x15:00000020
            41800000            1028 000015f4 fe078ce3 beq              x15, x0, -8         x15:00000020
            41840000            1029 000015f8 1a1007b7 lui              x15, 0x1a100000     x15=1a100000
            41880000            1030 000015fc 00a7a023 sw               x10, 0(x15)         x10:0000006c x15:1a100000  PA:1a100000
            41920000            1031 00001600 00008067 jalr             x0, x1, 0            x1:00001428
            42200000            1038 00001428 0014450b p.lbu            x10, 1(x8!)         x10=00000064  x8=0010000b  x8:0010000a  PA:0010000a
            42240000            1039 0000142c 00148493 addi             x9, x9, 1            x9=0000000a  x9:00000009
            42280000            1040 00001430 fe051ae3 bne              x10, x0, -12        x10:00000064
            42400000            1043 00001424 1c0000ef jal              x1, 448              x1=00001428
            42480000            1045 000015e4 1a100737 lui              x14, 0x1a100000     x14=1a100000
            42520000            1046 000015e8 01470713 addi             x14, x14, 20        x14=1a100014 x14:1a100000
            42560000            1047 000015ec 00072783 lw               x15, 0(x14)         x15=00000020 x14:1a100014  PA:1a100014
            42800000            1053 000015f0 0207f793 andi             x15, x15, 32        x15=00000020 x15:00000020
            42840000            1054 000015f4 fe078ce3 beq              x15, x0, -8         x15:00000020
            42880000            1055 000015f8 1a1007b7 lui              x15, 0x1a100000     x15=1a100000
            42920000            1056 000015fc 00a7a023 sw               x10, 0(x15)         x10:00000064 x15:1a100000  PA:1a100000
            42960000            1057 00001600 00008067 jalr             x0, x1, 0            x1:00001428
            43240000            1064 00001428 0014450b p.lbu            x10, 1(x8!)         x10=00000021  x8=0010000c  x8:0010000b  PA:0010000b
            43280000            1065 0000142c 00148493 addi             x9, x9, 1            x9=0000000b  x9:0000000a
            43320000            1066 00001430 fe051ae3 bne              x10, x0, -12        x10:00000021
            43440000            1069 00001424 1c0000ef jal              x1, 448              x1=00001428
            43520000            1071 000015e4 1a100737 lui              x14, 0x1a100000     x14=1a100000
            43560000            1072 000015e8 01470713 addi             x14, x14, 20        x14=1a100014 x14:1a100000
            43600000            1073 000015ec 00072783 lw               x15, 0(x14)         x15=00000020 x14:1a100014  PA:1a100014
            43840000            1079 000015f0 0207f793 andi             x15, x15, 32        x15=00000020 x15:00000020
            43880000            1080 000015f4 fe078ce3 beq              x15, x0, -8         x15:00000020
            43920000            1081 000015f8 1a1007b7 lui              x15, 0x1a100000     x15=1a100000
            43960000            1082 000015fc 00a7a023 sw               x10, 0(x15)         x10:00000021 x15:1a100000  PA:1a100000
            44000000            1083 00001600 00008067 jalr             x0, x1, 0            x1:00001428
            44280000            1090 00001428 0014450b p.lbu            x10, 1(x8!)         x10=00000021  x8=0010000d  x8:0010000c  PA:0010000c
            44320000            1091 0000142c 00148493 addi             x9, x9, 1            x9=0000000c  x9:0000000b
            44360000            1092 00001430 fe051ae3 bne              x10, x0, -12        x10:00000021
            44480000            1095 00001424 1c0000ef jal              x1, 448              x1=00001428
            44560000            1097 000015e4 1a100737 lui              x14, 0x1a100000     x14=1a100000
            44600000            1098 000015e8 01470713 addi             x14, x14, 20        x14=1a100014 x14:1a100000
            44640000            1099 000015ec 00072783 lw               x15, 0(x14)         x15=00000020 x14:1a100014  PA:1a100014
            44880000            1105 000015f0 0207f793 andi             x15, x15, 32        x15=00000020 x15:00000020
            44920000            1106 000015f4 fe078ce3 beq              x15, x0, -8         x15:00000020
            44960000            1107 000015f8 1a1007b7 lui              x15, 0x1a100000     x15=1a100000
            45000000            1108 000015fc 00a7a023 sw               x10, 0(x15)         x10:00000021 x15:1a100000  PA:1a100000
            45040000            1109 00001600 00008067 jalr             x0, x1, 0            x1:00001428
            45320000            1116 00001428 0014450b p.lbu            x10, 1(x8!)         x10=00000021  x8=0010000e  x8:0010000d  PA:0010000d
            45360000            1117 0000142c 00148493 addi             x9, x9, 1            x9=0000000d  x9:0000000c
            45400000            1118 00001430 fe051ae3 bne              x10, x0, -12        x10:00000021
            45520000            1121 00001424 1c0000ef jal              x1, 448              x1=00001428
            45600000            1123 000015e4 1a100737 lui              x14, 0x1a100000     x14=1a100000
            45640000            1124 000015e8 01470713 addi             x14, x14, 20        x14=1a100014 x14:1a100000
            45680000            1125 000015ec 00072783 lw               x15, 0(x14)         x15=00000020 x14:1a100014  PA:1a100014
            45920000            1131 000015f0 0207f793 andi             x15, x15, 32        x15=00000020 x15:00000020
            45960000            1132 000015f4 fe078ce3 beq              x15, x0, -8         x15:00000020
            46000000            1133 000015f8 1a1007b7 lui              x15, 0x1a100000     x15=1a100000
            46040000            1134 000015fc 00a7a023 sw               x10, 0(x15)         x10:00000021 x15:1a100000  PA:1a100000
            46080000            1135 00001600 00008067 jalr             x0, x1, 0            x1:00001428
            46360000            1142 00001428 0014450b p.lbu            x10, 1(x8!)         x10=00000021  x8=0010000f  x8:0010000e  PA:0010000e
            46400000            1143 0000142c 00148493 addi             x9, x9, 1            x9=0000000e  x9:0000000d
            46440000            1144 00001430 fe051ae3 bne              x10, x0, -12        x10:00000021
            46560000            1147 00001424 1c0000ef jal              x1, 448              x1=00001428
            46640000            1149 000015e4 1a100737 lui              x14, 0x1a100000     x14=1a100000
            46680000            1150 000015e8 01470713 addi             x14, x14, 20        x14=1a100014 x14:1a100000
            46720000            1151 000015ec 00072783 lw               x15, 0(x14)         x15=00000020 x14:1a100014  PA:1a100014
            46960000            1157 000015f0 0207f793 andi             x15, x15, 32        x15=00000020 x15:00000020
            47000000            1158 000015f4 fe078ce3 beq              x15, x0, -8         x15:00000020
            47040000            1159 000015f8 1a1007b7 lui              x15, 0x1a100000     x15=1a100000
            47080000            1160 000015fc 00a7a023 sw               x10, 0(x15)         x10:00000021 x15:1a100000  PA:1a100000
            47120000            1161 00001600 00008067 jalr             x0, x1, 0            x1:00001428
            47400000            1168 00001428 0014450b p.lbu            x10, 1(x8!)         x10=00000021  x8=00100010  x8:0010000f  PA:0010000f
            47440000            1169 0000142c 00148493 addi             x9, x9, 1            x9=0000000f  x9:0000000e
            47480000            1170 00001430 fe051ae3 bne              x10, x0, -12        x10:00000021
            47600000            1173 00001424 1c0000ef jal              x1, 448              x1=00001428
            47680000            1175 000015e4 1a100737 lui              x14, 0x1a100000     x14=1a100000
            47720000            1176 000015e8 01470713 addi             x14, x14, 20        x14=1a100014 x14:1a100000
            47760000            1177 000015ec 00072783 lw               x15, 0(x14)         x15=00000020 x14:1a100014  PA:1a100014
            48000000            1183 000015f0 0207f793 andi             x15, x15, 32        x15=00000020 x15:00000020
            48040000            1184 000015f4 fe078ce3 beq              x15, x0, -8         x15:00000020
            48080000            1185 000015f8 1a1007b7 lui              x15, 0x1a100000     x15=1a100000
            48120000            1186 000015fc 00a7a023 sw               x10, 0(x15)         x10:00000021 x15:1a100000  PA:1a100000
            48160000            1187 00001600 00008067 jalr             x0, x1, 0            x1:00001428
            48440000            1194 00001428 0014450b p.lbu            x10, 1(x8!)         x10=00000000  x8=00100011  x8:00100010  PA:00100010
            48480000            1195 0000142c 00148493 addi             x9, x9, 1            x9=00000010  x9:0000000f
            48520000            1196 00001430 fe051ae3 bne              x10, x0, -12        x10:00000000
            48560000            1197 00001434 00a00513 addi             x10, x0, 10         x10=0000000a
            48600000            1198 00001438 1ac000ef jal              x1, 428              x1=0000143c
            48680000            1200 000015e4 1a100737 lui              x14, 0x1a100000     x14=1a100000
            48720000            1201 000015e8 01470713 addi             x14, x14, 20        x14=1a100014 x14:1a100000
            48760000            1202 000015ec 00072783 lw               x15, 0(x14)         x15=00000020 x14:1a100014  PA:1a100014
            49000000            1208 000015f0 0207f793 andi             x15, x15, 32        x15=00000020 x15:00000020
            49040000            1209 000015f4 fe078ce3 beq              x15, x0, -8         x15:00000020
            49080000            1210 000015f8 1a1007b7 lui              x15, 0x1a100000     x15=1a100000
            49120000            1211 000015fc 00a7a023 sw               x10, 0(x15)         x10:0000000a x15:1a100000  PA:1a100000
            49160000            1212 00001600 00008067 jalr             x0, x1, 0            x1:0000143c
            49440000            1219 0000143c 00c12083 lw               x1, 12(x2)           x1=00000404  x2:00107fe0  PA:00107fec
            49480000            1220 00001440 00048513 addi             x10, x9, 0          x10=00000010  x9:00000010
            49520000            1221 00001444 00812403 lw               x8, 8(x2)            x8=00000000  x2:00107fe0  PA:00107fe8
            49560000            1222 00001448 00412483 lw               x9, 4(x2)            x9=00000000  x2:00107fe0  PA:00107fe4
            49600000            1223 0000144c 01010113 addi             x2, x2, 16           x2=00107ff0  x2:00107fe0
            49640000            1224 00001450 00008067 jalr             x0, x1, 0            x1:00000404
            49720000            1226 00000404 00c12083 lw               x1, 12(x2)           x1=0000014c  x2:00107ff0  PA:00107ffc
            49760000            1227 00000408 00000513 addi             x10, x0, 0          x10=00000000
            49800000            1228 0000040c 01010113 addi             x2, x2, 16           x2=00108000  x2:00107ff0
            49840000            1229 00000410 00008067 jalr             x0, x1, 0            x1:0000014c
            49920000            1231 0000014c 4b8010ef jal              x1, 5304             x1=00000150
            50000000            1233 00001604 1a100737 lui              x14, 0x1a100000     x14=1a100000
            50040000            1234 00001608 01470713 addi             x14, x14, 20        x14=1a100014 x14:1a100000
            50080000            1235 0000160c 00072783 lw               x15, 0(x14)         x15=00000020 x14:1a100014  PA:1a100014
            50320000            1241 00001610 0407f793 andi             x15, x15, 64        x15=00000000 x15:00000020
            50360000            1242 00001614 fe078ce3 beq              x15, x0, -8         x15:00000000
            50480000            1245 0000160c 00072783 lw               x15, 0(x14)         x15=00000020 x14:1a100014  PA:1a100014
            50720000            1251 00001610 0407f793 andi             x15, x15, 64        x15=00000000 x15:00000020
            50760000            1252 00001614 fe078ce3 beq              x15, x0, -8         x15:00000000
            50880000            1255 0000160c 00072783 lw               x15, 0(x14)         x15=00000020 x14:1a100014  PA:1a100014
            51120000            1261 00001610 0407f793 andi             x15, x15, 64        x15=00000000 x15:00000020
            51160000            1262 00001614 fe078ce3 beq              x15, x0, -8         x15:00000000
            51280000            1265 0000160c 00072783 lw               x15, 0(x14)         x15=00000020 x14:1a100014  PA:1a100014
            51520000            1271 00001610 0407f793 andi             x15, x15, 64        x15=00000000 x15:00000020
            51560000            1272 00001614 fe078ce3 beq              x15, x0, -8         x15:00000000
            51680000            1275 0000160c 00072783 lw               x15, 0(x14)         x15=00000020 x14:1a100014  PA:1a100014
            51920000            1281 00001610 0407f793 andi             x15, x15, 64        x15=00000000 x15:00000020
            51960000            1282 00001614 fe078ce3 beq              x15, x0, -8         x15:00000000
            52080000            1285 0000160c 00072783 lw               x15, 0(x14)         x15=00000020 x14:1a100014  PA:1a100014
            52320000            1291 00001610 0407f793 andi             x15, x15, 64        x15=00000000 x15:00000020
            52360000            1292 00001614 fe078ce3 beq              x15, x0, -8         x15:00000000
            52480000            1295 0000160c 00072783 lw               x15, 0(x14)         x15=00000020 x14:1a100014  PA:1a100014
            52720000            1301 00001610 0407f793 andi             x15, x15, 64        x15=00000000 x15:00000020
            52760000            1302 00001614 fe078ce3 beq              x15, x0, -8         x15:00000000
            52880000            1305 0000160c 00072783 lw               x15, 0(x14)         x15=00000020 x14:1a100014  PA:1a100014
            53120000            1311 00001610 0407f793 andi             x15, x15, 64        x15=00000000 x15:00000020
            53160000            1312 00001614 fe078ce3 beq              x15, x0, -8         x15:00000000
            53280000            1315 0000160c 00072783 lw               x15, 0(x14)         x15=00000020 x14:1a100014  PA:1a100014
            53520000            1321 00001610 0407f793 andi             x15, x15, 64        x15=00000000 x15:00000020
            53560000            1322 00001614 fe078ce3 beq              x15, x0, -8         x15:00000000
            53680000            1325 0000160c 00072783 lw               x15, 0(x14)         x15=00000020 x14:1a100014  PA:1a100014
            53920000            1331 00001610 0407f793 andi             x15, x15, 64        x15=00000000 x15:00000020
            53960000            1332 00001614 fe078ce3 beq              x15, x0, -8         x15:00000000
            54080000            1335 0000160c 00072783 lw               x15, 0(x14)         x15=00000020 x14:1a100014  PA:1a100014
            54320000            1341 00001610 0407f793 andi             x15, x15, 64        x15=00000000 x15:00000020
            54360000            1342 00001614 fe078ce3 beq              x15, x0, -8         x15:00000000
            54480000            1345 0000160c 00072783 lw               x15, 0(x14)         x15=00000020 x14:1a100014  PA:1a100014
            54720000            1351 00001610 0407f793 andi             x15, x15, 64        x15=00000000 x15:00000020
            54760000            1352 00001614 fe078ce3 beq              x15, x0, -8         x15:00000000
            54880000            1355 0000160c 00072783 lw               x15, 0(x14)         x15=00000020 x14:1a100014  PA:1a100014
            55120000            1361 00001610 0407f793 andi             x15, x15, 64        x15=00000000 x15:00000020
            55160000            1362 00001614 fe078ce3 beq              x15, x0, -8         x15:00000000
            55280000            1365 0000160c 00072783 lw               x15, 0(x14)         x15=00000020 x14:1a100014  PA:1a100014
            55520000            1371 00001610 0407f793 andi             x15, x15, 64        x15=00000000 x15:00000020
            55560000            1372 00001614 fe078ce3 beq              x15, x0, -8         x15:00000000
            55680000            1375 0000160c 00072783 lw               x15, 0(x14)         x15=00000020 x14:1a100014  PA:1a100014
            55920000            1381 00001610 0407f793 andi             x15, x15, 64        x15=00000000 x15:00000020
            55960000            1382 00001614 fe078ce3 beq              x15, x0, -8         x15:00000000
            56080000            1385 0000160c 00072783 lw               x15, 0(x14)         x15=00000020 x14:1a100014  PA:1a100014
            56320000            1391 00001610 0407f793 andi             x15, x15, 64        x15=00000000 x15:00000020
            56360000            1392 00001614 fe078ce3 beq              x15, x0, -8         x15:00000000
            56480000            1395 0000160c 00072783 lw               x15, 0(x14)         x15=00000020 x14:1a100014  PA:1a100014
            56720000            1401 00001610 0407f793 andi             x15, x15, 64        x15=00000000 x15:00000020
            56760000            1402 00001614 fe078ce3 beq              x15, x0, -8         x15:00000000
            56880000            1405 0000160c 00072783 lw               x15, 0(x14)         x15=00000020 x14:1a100014  PA:1a100014
            57120000            1411 00001610 0407f793 andi             x15, x15, 64        x15=00000000 x15:00000020
            57160000            1412 00001614 fe078ce3 beq              x15, x0, -8         x15:00000000
            57280000            1415 0000160c 00072783 lw               x15, 0(x14)         x15=00000020 x14:1a100014  PA:1a100014
            57520000            1421 00001610 0407f793 andi             x15, x15, 64        x15=00000000 x15:00000020
            57560000            1422 00001614 fe078ce3 beq              x15, x0, -8         x15:00000000
            57680000            1425 0000160c 00072783 lw               x15, 0(x14)         x15=00000020 x14:1a100014  PA:1a100014
            57920000            1431 00001610 0407f793 andi             x15, x15, 64        x15=00000000 x15:00000020
            57960000            1432 00001614 fe078ce3 beq              x15, x0, -8         x15:00000000
            58080000            1435 0000160c 00072783 lw               x15, 0(x14)         x15=00000020 x14:1a100014  PA:1a100014
            58320000            1441 00001610 0407f793 andi             x15, x15, 64        x15=00000000 x15:00000020
            58360000            1442 00001614 fe078ce3 beq              x15, x0, -8         x15:00000000
            58480000            1445 0000160c 00072783 lw               x15, 0(x14)         x15=00000020 x14:1a100014  PA:1a100014
            58720000            1451 00001610 0407f793 andi             x15, x15, 64        x15=00000000 x15:00000020
            58760000            1452 00001614 fe078ce3 beq              x15, x0, -8         x15:00000000
            58880000            1455 0000160c 00072783 lw               x15, 0(x14)         x15=00000020 x14:1a100014  PA:1a100014
            59120000            1461 00001610 0407f793 andi             x15, x15, 64        x15=00000000 x15:00000020
            59160000            1462 00001614 fe078ce3 beq              x15, x0, -8         x15:00000000
            59280000            1465 0000160c 00072783 lw               x15, 0(x14)         x15=00000020 x14:1a100014  PA:1a100014
            59520000            1471 00001610 0407f793 andi             x15, x15, 64        x15=00000000 x15:00000020
            59560000            1472 00001614 fe078ce3 beq              x15, x0, -8         x15:00000000
            59680000            1475 0000160c 00072783 lw               x15, 0(x14)         x15=00000020 x14:1a100014  PA:1a100014
            59920000            1481 00001610 0407f793 andi             x15, x15, 64        x15=00000000 x15:00000020
            59960000            1482 00001614 fe078ce3 beq              x15, x0, -8         x15:00000000
            60080000            1485 0000160c 00072783 lw               x15, 0(x14)         x15=00000020 x14:1a100014  PA:1a100014
            60320000            1491 00001610 0407f793 andi             x15, x15, 64        x15=00000000 x15:00000020
            60360000            1492 00001614 fe078ce3 beq              x15, x0, -8         x15:00000000
            60480000            1495 0000160c 00072783 lw               x15, 0(x14)         x15=00000020 x14:1a100014  PA:1a100014
            60720000            1501 00001610 0407f793 andi             x15, x15, 64        x15=00000000 x15:00000020
            60760000            1502 00001614 fe078ce3 beq              x15, x0, -8         x15:00000000
            60880000            1505 0000160c 00072783 lw               x15, 0(x14)         x15=00000020 x14:1a100014  PA:1a100014
            61120000            1511 00001610 0407f793 andi             x15, x15, 64        x15=00000000 x15:00000020
            61160000            1512 00001614 fe078ce3 beq              x15, x0, -8         x15:00000000
            61280000            1515 0000160c 00072783 lw               x15, 0(x14)         x15=00000020 x14:1a100014  PA:1a100014
            61520000            1521 00001610 0407f793 andi             x15, x15, 64        x15=00000000 x15:00000020
            61560000            1522 00001614 fe078ce3 beq              x15, x0, -8         x15:00000000
            61680000            1525 0000160c 00072783 lw               x15, 0(x14)         x15=00000020 x14:1a100014  PA:1a100014
            61920000            1531 00001610 0407f793 andi             x15, x15, 64        x15=00000000 x15:00000020
            61960000            1532 00001614 fe078ce3 beq              x15, x0, -8         x15:00000000
            62080000            1535 0000160c 00072783 lw               x15, 0(x14)         x15=00000020 x14:1a100014  PA:1a100014
            62320000            1541 00001610 0407f793 andi             x15, x15, 64        x15=00000000 x15:00000020
            62360000            1542 00001614 fe078ce3 beq              x15, x0, -8         x15:00000000
            62480000            1545 0000160c 00072783 lw               x15, 0(x14)         x15=00000020 x14:1a100014  PA:1a100014
            62720000            1551 00001610 0407f793 andi             x15, x15, 64        x15=00000000 x15:00000020
            62760000            1552 00001614 fe078ce3 beq              x15, x0, -8         x15:00000000
            62880000            1555 0000160c 00072783 lw               x15, 0(x14)         x15=00000020 x14:1a100014  PA:1a100014
            63120000            1561 00001610 0407f793 andi             x15, x15, 64        x15=00000000 x15:00000020
            63160000            1562 00001614 fe078ce3 beq              x15, x0, -8         x15:00000000
            63280000            1565 0000160c 00072783 lw               x15, 0(x14)         x15=00000020 x14:1a100014  PA:1a100014
            63520000            1571 00001610 0407f793 andi             x15, x15, 64        x15=00000000 x15:00000020
            63560000            1572 00001614 fe078ce3 beq              x15, x0, -8         x15:00000000
            63680000            1575 0000160c 00072783 lw               x15, 0(x14)         x15=00000020 x14:1a100014  PA:1a100014
            63920000            1581 00001610 0407f793 andi             x15, x15, 64        x15=00000000 x15:00000020
            63960000            1582 00001614 fe078ce3 beq              x15, x0, -8         x15:00000000
            64080000            1585 0000160c 00072783 lw               x15, 0(x14)         x15=00000020 x14:1a100014  PA:1a100014
            64320000            1591 00001610 0407f793 andi             x15, x15, 64        x15=00000000 x15:00000020
            64360000            1592 00001614 fe078ce3 beq              x15, x0, -8         x15:00000000
            64480000            1595 0000160c 00072783 lw               x15, 0(x14)         x15=00000020 x14:1a100014  PA:1a100014
            64720000            1601 00001610 0407f793 andi             x15, x15, 64        x15=00000000 x15:00000020
            64760000            1602 00001614 fe078ce3 beq              x15, x0, -8         x15:00000000
            64880000            1605 0000160c 00072783 lw               x15, 0(x14)         x15=00000020 x14:1a100014  PA:1a100014
            65120000            1611 00001610 0407f793 andi             x15, x15, 64        x15=00000000 x15:00000020
            65160000            1612 00001614 fe078ce3 beq              x15, x0, -8         x15:00000000
            65280000            1615 0000160c 00072783 lw               x15, 0(x14)         x15=00000020 x14:1a100014  PA:1a100014
            65520000            1621 00001610 0407f793 andi             x15, x15, 64        x15=00000000 x15:00000020
            65560000            1622 00001614 fe078ce3 beq              x15, x0, -8         x15:00000000
            65680000            1625 0000160c 00072783 lw               x15, 0(x14)         x15=00000020 x14:1a100014  PA:1a100014
            65920000            1631 00001610 0407f793 andi             x15, x15, 64        x15=00000000 x15:00000020
            65960000            1632 00001614 fe078ce3 beq              x15, x0, -8         x15:00000000
            66080000            1635 0000160c 00072783 lw               x15, 0(x14)         x15=00000020 x14:1a100014  PA:1a100014
            66320000            1641 00001610 0407f793 andi             x15, x15, 64        x15=00000000 x15:00000020
            66360000            1642 00001614 fe078ce3 beq              x15, x0, -8         x15:00000000
            66480000            1645 0000160c 00072783 lw               x15, 0(x14)         x15=00000020 x14:1a100014  PA:1a100014
            66720000            1651 00001610 0407f793 andi             x15, x15, 64        x15=00000000 x15:00000020
            66760000            1652 00001614 fe078ce3 beq              x15, x0, -8         x15:00000000
            66880000            1655 0000160c 00072783 lw               x15, 0(x14)         x15=00000020 x14:1a100014  PA:1a100014
            67120000            1661 00001610 0407f793 andi             x15, x15, 64        x15=00000000 x15:00000020
            67160000            1662 00001614 fe078ce3 beq              x15, x0, -8         x15:00000000
            67280000            1665 0000160c 00072783 lw               x15, 0(x14)         x15=00000020 x14:1a100014  PA:1a100014
            67520000            1671 00001610 0407f793 andi             x15, x15, 64        x15=00000000 x15:00000020
            67560000            1672 00001614 fe078ce3 beq              x15, x0, -8         x15:00000000
            67680000            1675 0000160c 00072783 lw               x15, 0(x14)         x15=00000020 x14:1a100014  PA:1a100014
            67920000            1681 00001610 0407f793 andi             x15, x15, 64        x15=00000000 x15:00000020
            67960000            1682 00001614 fe078ce3 beq              x15, x0, -8         x15:00000000
            68080000            1685 0000160c 00072783 lw               x15, 0(x14)         x15=00000020 x14:1a100014  PA:1a100014
            68320000            1691 00001610 0407f793 andi             x15, x15, 64        x15=00000000 x15:00000020
            68360000            1692 00001614 fe078ce3 beq              x15, x0, -8         x15:00000000
            68480000            1695 0000160c 00072783 lw               x15, 0(x14)         x15=00000020 x14:1a100014  PA:1a100014
            68720000            1701 00001610 0407f793 andi             x15, x15, 64        x15=00000000 x15:00000020
            68760000            1702 00001614 fe078ce3 beq              x15, x0, -8         x15:00000000
            68880000            1705 0000160c 00072783 lw               x15, 0(x14)         x15=00000020 x14:1a100014  PA:1a100014
            69120000            1711 00001610 0407f793 andi             x15, x15, 64        x15=00000000 x15:00000020
            69160000            1712 00001614 fe078ce3 beq              x15, x0, -8         x15:00000000
            69280000            1715 0000160c 00072783 lw               x15, 0(x14)         x15=00000020 x14:1a100014  PA:1a100014
            69520000            1721 00001610 0407f793 andi             x15, x15, 64        x15=00000000 x15:00000020
            69560000            1722 00001614 fe078ce3 beq              x15, x0, -8         x15:00000000
            69680000            1725 0000160c 00072783 lw               x15, 0(x14)         x15=00000020 x14:1a100014  PA:1a100014
            69920000            1731 00001610 0407f793 andi             x15, x15, 64        x15=00000000 x15:00000020
            69960000            1732 00001614 fe078ce3 beq              x15, x0, -8         x15:00000000
            70080000            1735 0000160c 00072783 lw               x15, 0(x14)         x15=00000020 x14:1a100014  PA:1a100014
            70320000            1741 00001610 0407f793 andi             x15, x15, 64        x15=00000000 x15:00000020
            70360000            1742 00001614 fe078ce3 beq              x15, x0, -8         x15:00000000
            70480000            1745 0000160c 00072783 lw               x15, 0(x14)         x15=00000020 x14:1a100014  PA:1a100014
            70720000            1751 00001610 0407f793 andi             x15, x15, 64        x15=00000000 x15:00000020
            70760000            1752 00001614 fe078ce3 beq              x15, x0, -8         x15:00000000
            70880000            1755 0000160c 00072783 lw               x15, 0(x14)         x15=00000020 x14:1a100014  PA:1a100014
            71120000            1761 00001610 0407f793 andi             x15, x15, 64        x15=00000000 x15:00000020
            71160000            1762 00001614 fe078ce3 beq              x15, x0, -8         x15:00000000
            71280000            1765 0000160c 00072783 lw               x15, 0(x14)         x15=00000020 x14:1a100014  PA:1a100014
            71520000            1771 00001610 0407f793 andi             x15, x15, 64        x15=00000000 x15:00000020
            71560000            1772 00001614 fe078ce3 beq              x15, x0, -8         x15:00000000
            71680000            1775 0000160c 00072783 lw               x15, 0(x14)         x15=00000020 x14:1a100014  PA:1a100014
            71920000            1781 00001610 0407f793 andi             x15, x15, 64        x15=00000000 x15:00000020
            71960000            1782 00001614 fe078ce3 beq              x15, x0, -8         x15:00000000
            72080000            1785 0000160c 00072783 lw               x15, 0(x14)         x15=00000020 x14:1a100014  PA:1a100014
            72320000            1791 00001610 0407f793 andi             x15, x15, 64        x15=00000000 x15:00000020
            72360000            1792 00001614 fe078ce3 beq              x15, x0, -8         x15:00000000
            72480000            1795 0000160c 00072783 lw               x15, 0(x14)         x15=00000020 x14:1a100014  PA:1a100014
            72720000            1801 00001610 0407f793 andi             x15, x15, 64        x15=00000000 x15:00000020
            72760000            1802 00001614 fe078ce3 beq              x15, x0, -8         x15:00000000
            72880000            1805 0000160c 00072783 lw               x15, 0(x14)         x15=00000020 x14:1a100014  PA:1a100014
            73120000            1811 00001610 0407f793 andi             x15, x15, 64        x15=00000000 x15:00000020
            73160000            1812 00001614 fe078ce3 beq              x15, x0, -8         x15:00000000
            73280000            1815 0000160c 00072783 lw               x15, 0(x14)         x15=00000020 x14:1a100014  PA:1a100014
            73520000            1821 00001610 0407f793 andi             x15, x15, 64        x15=00000000 x15:00000020
            73560000            1822 00001614 fe078ce3 beq              x15, x0, -8         x15:00000000
            73680000            1825 0000160c 00072783 lw               x15, 0(x14)         x15=00000020 x14:1a100014  PA:1a100014
            73920000            1831 00001610 0407f793 andi             x15, x15, 64        x15=00000000 x15:00000020
            73960000            1832 00001614 fe078ce3 beq              x15, x0, -8         x15:00000000
            74080000            1835 0000160c 00072783 lw               x15, 0(x14)         x15=00000020 x14:1a100014  PA:1a100014
            74320000            1841 00001610 0407f793 andi             x15, x15, 64        x15=00000000 x15:00000020
            74360000            1842 00001614 fe078ce3 beq              x15, x0, -8         x15:00000000
            74480000            1845 0000160c 00072783 lw               x15, 0(x14)         x15=00000020 x14:1a100014  PA:1a100014
            74720000            1851 00001610 0407f793 andi             x15, x15, 64        x15=00000000 x15:00000020
            74760000            1852 00001614 fe078ce3 beq              x15, x0, -8         x15:00000000
            74880000            1855 0000160c 00072783 lw               x15, 0(x14)         x15=00000020 x14:1a100014  PA:1a100014
            75120000            1861 00001610 0407f793 andi             x15, x15, 64        x15=00000000 x15:00000020
            75160000            1862 00001614 fe078ce3 beq              x15, x0, -8         x15:00000000
            75280000            1865 0000160c 00072783 lw               x15, 0(x14)         x15=00000020 x14:1a100014  PA:1a100014
            75520000            1871 00001610 0407f793 andi             x15, x15, 64        x15=00000000 x15:00000020
            75560000            1872 00001614 fe078ce3 beq              x15, x0, -8         x15:00000000
            75680000            1875 0000160c 00072783 lw               x15, 0(x14)         x15=00000020 x14:1a100014  PA:1a100014
            75920000            1881 00001610 0407f793 andi             x15, x15, 64        x15=00000000 x15:00000020
            75960000            1882 00001614 fe078ce3 beq              x15, x0, -8         x15:00000000
            76080000            1885 0000160c 00072783 lw               x15, 0(x14)         x15=00000020 x14:1a100014  PA:1a100014
            76320000            1891 00001610 0407f793 andi             x15, x15, 64        x15=00000000 x15:00000020
            76360000            1892 00001614 fe078ce3 beq              x15, x0, -8         x15:00000000
            76480000            1895 0000160c 00072783 lw               x15, 0(x14)         x15=00000020 x14:1a100014  PA:1a100014
            76720000            1901 00001610 0407f793 andi             x15, x15, 64        x15=00000000 x15:00000020
            76760000            1902 00001614 fe078ce3 beq              x15, x0, -8         x15:00000000
            76880000            1905 0000160c 00072783 lw               x15, 0(x14)         x15=00000020 x14:1a100014  PA:1a100014
            77120000            1911 00001610 0407f793 andi             x15, x15, 64        x15=00000000 x15:00000020
            77160000            1912 00001614 fe078ce3 beq              x15, x0, -8         x15:00000000
            77280000            1915 0000160c 00072783 lw               x15, 0(x14)         x15=00000020 x14:1a100014  PA:1a100014
            77520000            1921 00001610 0407f793 andi             x15, x15, 64        x15=00000000 x15:00000020
            77560000            1922 00001614 fe078ce3 beq              x15, x0, -8         x15:00000000
            77680000            1925 0000160c 00072783 lw               x15, 0(x14)         x15=00000020 x14:1a100014  PA:1a100014
            77920000            1931 00001610 0407f793 andi             x15, x15, 64        x15=00000000 x15:00000020
            77960000            1932 00001614 fe078ce3 beq              x15, x0, -8         x15:00000000
            78080000            1935 0000160c 00072783 lw               x15, 0(x14)         x15=00000020 x14:1a100014  PA:1a100014
            78320000            1941 00001610 0407f793 andi             x15, x15, 64        x15=00000000 x15:00000020
            78360000            1942 00001614 fe078ce3 beq              x15, x0, -8         x15:00000000
            78480000            1945 0000160c 00072783 lw               x15, 0(x14)         x15=00000020 x14:1a100014  PA:1a100014
            78720000            1951 00001610 0407f793 andi             x15, x15, 64        x15=00000000 x15:00000020
            78760000            1952 00001614 fe078ce3 beq              x15, x0, -8         x15:00000000
            78880000            1955 0000160c 00072783 lw               x15, 0(x14)         x15=00000020 x14:1a100014  PA:1a100014
            79120000            1961 00001610 0407f793 andi             x15, x15, 64        x15=00000000 x15:00000020
            79160000            1962 00001614 fe078ce3 beq              x15, x0, -8         x15:00000000
            79280000            1965 0000160c 00072783 lw               x15, 0(x14)         x15=00000020 x14:1a100014  PA:1a100014
            79520000            1971 00001610 0407f793 andi             x15, x15, 64        x15=00000000 x15:00000020
            79560000            1972 00001614 fe078ce3 beq              x15, x0, -8         x15:00000000
            79680000            1975 0000160c 00072783 lw               x15, 0(x14)         x15=00000020 x14:1a100014  PA:1a100014
            79920000            1981 00001610 0407f793 andi             x15, x15, 64        x15=00000000 x15:00000020
            79960000            1982 00001614 fe078ce3 beq              x15, x0, -8         x15:00000000
            80080000            1985 0000160c 00072783 lw               x15, 0(x14)         x15=00000020 x14:1a100014  PA:1a100014
            80320000            1991 00001610 0407f793 andi             x15, x15, 64        x15=00000000 x15:00000020
            80360000            1992 00001614 fe078ce3 beq              x15, x0, -8         x15:00000000
            80480000            1995 0000160c 00072783 lw               x15, 0(x14)         x15=00000020 x14:1a100014  PA:1a100014
            80720000            2001 00001610 0407f793 andi             x15, x15, 64        x15=00000000 x15:00000020
            80760000            2002 00001614 fe078ce3 beq              x15, x0, -8         x15:00000000
            80880000            2005 0000160c 00072783 lw               x15, 0(x14)         x15=00000020 x14:1a100014  PA:1a100014
            81120000            2011 00001610 0407f793 andi             x15, x15, 64        x15=00000000 x15:00000020
            81160000            2012 00001614 fe078ce3 beq              x15, x0, -8         x15:00000000
            81280000            2015 0000160c 00072783 lw               x15, 0(x14)         x15=00000020 x14:1a100014  PA:1a100014
            81520000            2021 00001610 0407f793 andi             x15, x15, 64        x15=00000000 x15:00000020
            81560000            2022 00001614 fe078ce3 beq              x15, x0, -8         x15:00000000
            81680000            2025 0000160c 00072783 lw               x15, 0(x14)         x15=00000020 x14:1a100014  PA:1a100014
            81920000            2031 00001610 0407f793 andi             x15, x15, 64        x15=00000000 x15:00000020
            81960000            2032 00001614 fe078ce3 beq              x15, x0, -8         x15:00000000
            82080000            2035 0000160c 00072783 lw               x15, 0(x14)         x15=00000020 x14:1a100014  PA:1a100014
            82320000            2041 00001610 0407f793 andi             x15, x15, 64        x15=00000000 x15:00000020
            82360000            2042 00001614 fe078ce3 beq              x15, x0, -8         x15:00000000
            82480000            2045 0000160c 00072783 lw               x15, 0(x14)         x15=00000020 x14:1a100014  PA:1a100014
            82720000            2051 00001610 0407f793 andi             x15, x15, 64        x15=00000000 x15:00000020
            82760000            2052 00001614 fe078ce3 beq              x15, x0, -8         x15:00000000
            82880000            2055 0000160c 00072783 lw               x15, 0(x14)         x15=00000020 x14:1a100014  PA:1a100014
            83120000            2061 00001610 0407f793 andi             x15, x15, 64        x15=00000000 x15:00000020
            83160000            2062 00001614 fe078ce3 beq              x15, x0, -8         x15:00000000
            83280000            2065 0000160c 00072783 lw               x15, 0(x14)         x15=00000020 x14:1a100014  PA:1a100014
            83520000            2071 00001610 0407f793 andi             x15, x15, 64        x15=00000000 x15:00000020
            83560000            2072 00001614 fe078ce3 beq              x15, x0, -8         x15:00000000
            83680000            2075 0000160c 00072783 lw               x15, 0(x14)         x15=00000020 x14:1a100014  PA:1a100014
            83920000            2081 00001610 0407f793 andi             x15, x15, 64        x15=00000000 x15:00000020
            83960000            2082 00001614 fe078ce3 beq              x15, x0, -8         x15:00000000
            84080000            2085 0000160c 00072783 lw               x15, 0(x14)         x15=00000020 x14:1a100014  PA:1a100014
            84320000            2091 00001610 0407f793 andi             x15, x15, 64        x15=00000000 x15:00000020
            84360000            2092 00001614 fe078ce3 beq              x15, x0, -8         x15:00000000
            84480000            2095 0000160c 00072783 lw               x15, 0(x14)         x15=00000020 x14:1a100014  PA:1a100014
            84720000            2101 00001610 0407f793 andi             x15, x15, 64        x15=00000000 x15:00000020
            84760000            2102 00001614 fe078ce3 beq              x15, x0, -8         x15:00000000
            84880000            2105 0000160c 00072783 lw               x15, 0(x14)         x15=00000020 x14:1a100014  PA:1a100014
            85120000            2111 00001610 0407f793 andi             x15, x15, 64        x15=00000000 x15:00000020
            85160000            2112 00001614 fe078ce3 beq              x15, x0, -8         x15:00000000
            85280000            2115 0000160c 00072783 lw               x15, 0(x14)         x15=00000020 x14:1a100014  PA:1a100014
            85520000            2121 00001610 0407f793 andi             x15, x15, 64        x15=00000000 x15:00000020
            85560000            2122 00001614 fe078ce3 beq              x15, x0, -8         x15:00000000
            85680000            2125 0000160c 00072783 lw               x15, 0(x14)         x15=00000020 x14:1a100014  PA:1a100014
            85920000            2131 00001610 0407f793 andi             x15, x15, 64        x15=00000000 x15:00000020
            85960000            2132 00001614 fe078ce3 beq              x15, x0, -8         x15:00000000
            86080000            2135 0000160c 00072783 lw               x15, 0(x14)         x15=00000020 x14:1a100014  PA:1a100014
            86320000            2141 00001610 0407f793 andi             x15, x15, 64        x15=00000000 x15:00000020
            86360000            2142 00001614 fe078ce3 beq              x15, x0, -8         x15:00000000
            86480000            2145 0000160c 00072783 lw               x15, 0(x14)         x15=00000020 x14:1a100014  PA:1a100014
            86720000            2151 00001610 0407f793 andi             x15, x15, 64        x15=00000000 x15:00000020
            86760000            2152 00001614 fe078ce3 beq              x15, x0, -8         x15:00000000
            86880000            2155 0000160c 00072783 lw               x15, 0(x14)         x15=00000020 x14:1a100014  PA:1a100014
            87120000            2161 00001610 0407f793 andi             x15, x15, 64        x15=00000000 x15:00000020
            87160000            2162 00001614 fe078ce3 beq              x15, x0, -8         x15:00000000
            87280000            2165 0000160c 00072783 lw               x15, 0(x14)         x15=00000020 x14:1a100014  PA:1a100014
            87520000            2171 00001610 0407f793 andi             x15, x15, 64        x15=00000000 x15:00000020
            87560000            2172 00001614 fe078ce3 beq              x15, x0, -8         x15:00000000
            87680000            2175 0000160c 00072783 lw               x15, 0(x14)         x15=00000020 x14:1a100014  PA:1a100014
            87920000            2181 00001610 0407f793 andi             x15, x15, 64        x15=00000000 x15:00000020
            87960000            2182 00001614 fe078ce3 beq              x15, x0, -8         x15:00000000
            88080000            2185 0000160c 00072783 lw               x15, 0(x14)         x15=00000020 x14:1a100014  PA:1a100014
            88320000            2191 00001610 0407f793 andi             x15, x15, 64        x15=00000000 x15:00000020
            88360000            2192 00001614 fe078ce3 beq              x15, x0, -8         x15:00000000
            88480000            2195 0000160c 00072783 lw               x15, 0(x14)         x15=00000020 x14:1a100014  PA:1a100014
            88720000            2201 00001610 0407f793 andi             x15, x15, 64        x15=00000000 x15:00000020
            88760000            2202 00001614 fe078ce3 beq              x15, x0, -8         x15:00000000
            88880000            2205 0000160c 00072783 lw               x15, 0(x14)         x15=00000020 x14:1a100014  PA:1a100014
            89120000            2211 00001610 0407f793 andi             x15, x15, 64        x15=00000000 x15:00000020
            89160000            2212 00001614 fe078ce3 beq              x15, x0, -8         x15:00000000
            89280000            2215 0000160c 00072783 lw               x15, 0(x14)         x15=00000020 x14:1a100014  PA:1a100014
            89520000            2221 00001610 0407f793 andi             x15, x15, 64        x15=00000000 x15:00000020
            89560000            2222 00001614 fe078ce3 beq              x15, x0, -8         x15:00000000
            89680000            2225 0000160c 00072783 lw               x15, 0(x14)         x15=00000020 x14:1a100014  PA:1a100014
            89920000            2231 00001610 0407f793 andi             x15, x15, 64        x15=00000000 x15:00000020
            89960000            2232 00001614 fe078ce3 beq              x15, x0, -8         x15:00000000
            90080000            2235 0000160c 00072783 lw               x15, 0(x14)         x15=00000020 x14:1a100014  PA:1a100014
            90320000            2241 00001610 0407f793 andi             x15, x15, 64        x15=00000000 x15:00000020
            90360000            2242 00001614 fe078ce3 beq              x15, x0, -8         x15:00000000
            90480000            2245 0000160c 00072783 lw               x15, 0(x14)         x15=00000020 x14:1a100014  PA:1a100014
            90720000            2251 00001610 0407f793 andi             x15, x15, 64        x15=00000000 x15:00000020
            90760000            2252 00001614 fe078ce3 beq              x15, x0, -8         x15:00000000
            90880000            2255 0000160c 00072783 lw               x15, 0(x14)         x15=00000020 x14:1a100014  PA:1a100014
            91120000            2261 00001610 0407f793 andi             x15, x15, 64        x15=00000000 x15:00000020
            91160000            2262 00001614 fe078ce3 beq              x15, x0, -8         x15:00000000
            91280000            2265 0000160c 00072783 lw               x15, 0(x14)         x15=00000020 x14:1a100014  PA:1a100014
            91520000            2271 00001610 0407f793 andi             x15, x15, 64        x15=00000000 x15:00000020
            91560000            2272 00001614 fe078ce3 beq              x15, x0, -8         x15:00000000
            91680000            2275 0000160c 00072783 lw               x15, 0(x14)         x15=00000020 x14:1a100014  PA:1a100014
            91920000            2281 00001610 0407f793 andi             x15, x15, 64        x15=00000000 x15:00000020
            91960000            2282 00001614 fe078ce3 beq              x15, x0, -8         x15:00000000
            92080000            2285 0000160c 00072783 lw               x15, 0(x14)         x15=00000020 x14:1a100014  PA:1a100014
            92320000            2291 00001610 0407f793 andi             x15, x15, 64        x15=00000000 x15:00000020
            92360000            2292 00001614 fe078ce3 beq              x15, x0, -8         x15:00000000
            92480000            2295 0000160c 00072783 lw               x15, 0(x14)         x15=00000020 x14:1a100014  PA:1a100014
            92720000            2301 00001610 0407f793 andi             x15, x15, 64        x15=00000000 x15:00000020
            92760000            2302 00001614 fe078ce3 beq              x15, x0, -8         x15:00000000
            92880000            2305 0000160c 00072783 lw               x15, 0(x14)         x15=00000020 x14:1a100014  PA:1a100014
            93120000            2311 00001610 0407f793 andi             x15, x15, 64        x15=00000000 x15:00000020
            93160000            2312 00001614 fe078ce3 beq              x15, x0, -8         x15:00000000
            93280000            2315 0000160c 00072783 lw               x15, 0(x14)         x15=00000020 x14:1a100014  PA:1a100014
            93520000            2321 00001610 0407f793 andi             x15, x15, 64        x15=00000000 x15:00000020
            93560000            2322 00001614 fe078ce3 beq              x15, x0, -8         x15:00000000
            93680000            2325 0000160c 00072783 lw               x15, 0(x14)         x15=00000020 x14:1a100014  PA:1a100014
            93920000            2331 00001610 0407f793 andi             x15, x15, 64        x15=00000000 x15:00000020
            93960000            2332 00001614 fe078ce3 beq              x15, x0, -8         x15:00000000
            94080000            2335 0000160c 00072783 lw               x15, 0(x14)         x15=00000020 x14:1a100014  PA:1a100014
            94320000            2341 00001610 0407f793 andi             x15, x15, 64        x15=00000000 x15:00000020
            94360000            2342 00001614 fe078ce3 beq              x15, x0, -8         x15:00000000
            94480000            2345 0000160c 00072783 lw               x15, 0(x14)         x15=00000020 x14:1a100014  PA:1a100014
            94720000            2351 00001610 0407f793 andi             x15, x15, 64        x15=00000000 x15:00000020
            94760000            2352 00001614 fe078ce3 beq              x15, x0, -8         x15:00000000
            94880000            2355 0000160c 00072783 lw               x15, 0(x14)         x15=00000020 x14:1a100014  PA:1a100014
            95120000            2361 00001610 0407f793 andi             x15, x15, 64        x15=00000000 x15:00000020
            95160000            2362 00001614 fe078ce3 beq              x15, x0, -8         x15:00000000
            95280000            2365 0000160c 00072783 lw               x15, 0(x14)         x15=00000020 x14:1a100014  PA:1a100014
            95520000            2371 00001610 0407f793 andi             x15, x15, 64        x15=00000000 x15:00000020
            95560000            2372 00001614 fe078ce3 beq              x15, x0, -8         x15:00000000
            95680000            2375 0000160c 00072783 lw               x15, 0(x14)         x15=00000020 x14:1a100014  PA:1a100014
            95920000            2381 00001610 0407f793 andi             x15, x15, 64        x15=00000000 x15:00000020
            95960000            2382 00001614 fe078ce3 beq              x15, x0, -8         x15:00000000
            96080000            2385 0000160c 00072783 lw               x15, 0(x14)         x15=00000020 x14:1a100014  PA:1a100014
            96320000            2391 00001610 0407f793 andi             x15, x15, 64        x15=00000000 x15:00000020
            96360000            2392 00001614 fe078ce3 beq              x15, x0, -8         x15:00000000
            96480000            2395 0000160c 00072783 lw               x15, 0(x14)         x15=00000020 x14:1a100014  PA:1a100014
            96720000            2401 00001610 0407f793 andi             x15, x15, 64        x15=00000000 x15:00000020
            96760000            2402 00001614 fe078ce3 beq              x15, x0, -8         x15:00000000
            96880000            2405 0000160c 00072783 lw               x15, 0(x14)         x15=00000020 x14:1a100014  PA:1a100014
            97120000            2411 00001610 0407f793 andi             x15, x15, 64        x15=00000000 x15:00000020
            97160000            2412 00001614 fe078ce3 beq              x15, x0, -8         x15:00000000
            97280000            2415 0000160c 00072783 lw               x15, 0(x14)         x15=00000020 x14:1a100014  PA:1a100014
            97520000            2421 00001610 0407f793 andi             x15, x15, 64        x15=00000000 x15:00000020
            97560000            2422 00001614 fe078ce3 beq              x15, x0, -8         x15:00000000
            97680000            2425 0000160c 00072783 lw               x15, 0(x14)         x15=00000020 x14:1a100014  PA:1a100014
            97920000            2431 00001610 0407f793 andi             x15, x15, 64        x15=00000000 x15:00000020
            97960000            2432 00001614 fe078ce3 beq              x15, x0, -8         x15:00000000
            98080000            2435 0000160c 00072783 lw               x15, 0(x14)         x15=00000020 x14:1a100014  PA:1a100014
            98320000            2441 00001610 0407f793 andi             x15, x15, 64        x15=00000000 x15:00000020
            98360000            2442 00001614 fe078ce3 beq              x15, x0, -8         x15:00000000
            98480000            2445 0000160c 00072783 lw               x15, 0(x14)         x15=00000020 x14:1a100014  PA:1a100014
            98720000            2451 00001610 0407f793 andi             x15, x15, 64        x15=00000000 x15:00000020
            98760000            2452 00001614 fe078ce3 beq              x15, x0, -8         x15:00000000
            98880000            2455 0000160c 00072783 lw               x15, 0(x14)         x15=00000020 x14:1a100014  PA:1a100014
            99120000            2461 00001610 0407f793 andi             x15, x15, 64        x15=00000000 x15:00000020
            99160000            2462 00001614 fe078ce3 beq              x15, x0, -8         x15:00000000
            99280000            2465 0000160c 00072783 lw               x15, 0(x14)         x15=00000020 x14:1a100014  PA:1a100014
            99520000            2471 00001610 0407f793 andi             x15, x15, 64        x15=00000000 x15:00000020
            99560000            2472 00001614 fe078ce3 beq              x15, x0, -8         x15:00000000
            99680000            2475 0000160c 00072783 lw               x15, 0(x14)         x15=00000020 x14:1a100014  PA:1a100014
            99920000            2481 00001610 0407f793 andi             x15, x15, 64        x15=00000000 x15:00000020
            99960000            2482 00001614 fe078ce3 beq              x15, x0, -8         x15:00000000
           100080000            2485 0000160c 00072783 lw               x15, 0(x14)         x15=00000020 x14:1a100014  PA:1a100014
           100320000            2491 00001610 0407f793 andi             x15, x15, 64        x15=00000000 x15:00000020
           100360000            2492 00001614 fe078ce3 beq              x15, x0, -8         x15:00000000
           100480000            2495 0000160c 00072783 lw               x15, 0(x14)         x15=00000020 x14:1a100014  PA:1a100014
           100720000            2501 00001610 0407f793 andi             x15, x15, 64        x15=00000000 x15:00000020
           100760000            2502 00001614 fe078ce3 beq              x15, x0, -8         x15:00000000
           100880000            2505 0000160c 00072783 lw               x15, 0(x14)         x15=00000020 x14:1a100014  PA:1a100014
           101120000            2511 00001610 0407f793 andi             x15, x15, 64        x15=00000000 x15:00000020
           101160000            2512 00001614 fe078ce3 beq              x15, x0, -8         x15:00000000
           101280000            2515 0000160c 00072783 lw               x15, 0(x14)         x15=00000020 x14:1a100014  PA:1a100014
           101520000            2521 00001610 0407f793 andi             x15, x15, 64        x15=00000000 x15:00000020
           101560000            2522 00001614 fe078ce3 beq              x15, x0, -8         x15:00000000
           101680000            2525 0000160c 00072783 lw               x15, 0(x14)         x15=00000020 x14:1a100014  PA:1a100014
           101920000            2531 00001610 0407f793 andi             x15, x15, 64        x15=00000000 x15:00000020
           101960000            2532 00001614 fe078ce3 beq              x15, x0, -8         x15:00000000
           102080000            2535 0000160c 00072783 lw               x15, 0(x14)         x15=00000020 x14:1a100014  PA:1a100014
           102320000            2541 00001610 0407f793 andi             x15, x15, 64        x15=00000000 x15:00000020
           102360000            2542 00001614 fe078ce3 beq              x15, x0, -8         x15:00000000
           102480000            2545 0000160c 00072783 lw               x15, 0(x14)         x15=00000020 x14:1a100014  PA:1a100014
           102720000            2551 00001610 0407f793 andi             x15, x15, 64        x15=00000000 x15:00000020
           102760000            2552 00001614 fe078ce3 beq              x15, x0, -8         x15:00000000
           102880000            2555 0000160c 00072783 lw               x15, 0(x14)         x15=00000020 x14:1a100014  PA:1a100014
           103120000            2561 00001610 0407f793 andi             x15, x15, 64        x15=00000000 x15:00000020
           103160000            2562 00001614 fe078ce3 beq              x15, x0, -8         x15:00000000
           103280000            2565 0000160c 00072783 lw               x15, 0(x14)         x15=00000020 x14:1a100014  PA:1a100014
           103520000            2571 00001610 0407f793 andi             x15, x15, 64        x15=00000000 x15:00000020
           103560000            2572 00001614 fe078ce3 beq              x15, x0, -8         x15:00000000
           103680000            2575 0000160c 00072783 lw               x15, 0(x14)         x15=00000020 x14:1a100014  PA:1a100014
           103920000            2581 00001610 0407f793 andi             x15, x15, 64        x15=00000000 x15:00000020
           103960000            2582 00001614 fe078ce3 beq              x15, x0, -8         x15:00000000
           104080000            2585 0000160c 00072783 lw               x15, 0(x14)         x15=00000020 x14:1a100014  PA:1a100014
           104320000            2591 00001610 0407f793 andi             x15, x15, 64        x15=00000000 x15:00000020
           104360000            2592 00001614 fe078ce3 beq              x15, x0, -8         x15:00000000
           104480000            2595 0000160c 00072783 lw               x15, 0(x14)         x15=00000020 x14:1a100014  PA:1a100014
           104720000            2601 00001610 0407f793 andi             x15, x15, 64        x15=00000000 x15:00000020
           104760000            2602 00001614 fe078ce3 beq              x15, x0, -8         x15:00000000
           104880000            2605 0000160c 00072783 lw               x15, 0(x14)         x15=00000020 x14:1a100014  PA:1a100014
           105120000            2611 00001610 0407f793 andi             x15, x15, 64        x15=00000000 x15:00000020
           105160000            2612 00001614 fe078ce3 beq              x15, x0, -8         x15:00000000
           105280000            2615 0000160c 00072783 lw               x15, 0(x14)         x15=00000020 x14:1a100014  PA:1a100014
           105520000            2621 00001610 0407f793 andi             x15, x15, 64        x15=00000000 x15:00000020
           105560000            2622 00001614 fe078ce3 beq              x15, x0, -8         x15:00000000
           105680000            2625 0000160c 00072783 lw               x15, 0(x14)         x15=00000020 x14:1a100014  PA:1a100014
           105920000            2631 00001610 0407f793 andi             x15, x15, 64        x15=00000000 x15:00000020
           105960000            2632 00001614 fe078ce3 beq              x15, x0, -8         x15:00000000
           106080000            2635 0000160c 00072783 lw               x15, 0(x14)         x15=00000020 x14:1a100014  PA:1a100014
           106320000            2641 00001610 0407f793 andi             x15, x15, 64        x15=00000000 x15:00000020
           106360000            2642 00001614 fe078ce3 beq              x15, x0, -8         x15:00000000
           106480000            2645 0000160c 00072783 lw               x15, 0(x14)         x15=00000020 x14:1a100014  PA:1a100014
           106720000            2651 00001610 0407f793 andi             x15, x15, 64        x15=00000000 x15:00000020
           106760000            2652 00001614 fe078ce3 beq              x15, x0, -8         x15:00000000
           106880000            2655 0000160c 00072783 lw               x15, 0(x14)         x15=00000020 x14:1a100014  PA:1a100014
           107120000            2661 00001610 0407f793 andi             x15, x15, 64        x15=00000000 x15:00000020
           107160000            2662 00001614 fe078ce3 beq              x15, x0, -8         x15:00000000
           107280000            2665 0000160c 00072783 lw               x15, 0(x14)         x15=00000020 x14:1a100014  PA:1a100014
           107520000            2671 00001610 0407f793 andi             x15, x15, 64        x15=00000000 x15:00000020
           107560000            2672 00001614 fe078ce3 beq              x15, x0, -8         x15:00000000
           107680000            2675 0000160c 00072783 lw               x15, 0(x14)         x15=00000020 x14:1a100014  PA:1a100014
           107920000            2681 00001610 0407f793 andi             x15, x15, 64        x15=00000000 x15:00000020
           107960000            2682 00001614 fe078ce3 beq              x15, x0, -8         x15:00000000
           108080000            2685 0000160c 00072783 lw               x15, 0(x14)         x15=00000020 x14:1a100014  PA:1a100014
           108320000            2691 00001610 0407f793 andi             x15, x15, 64        x15=00000000 x15:00000020
           108360000            2692 00001614 fe078ce3 beq              x15, x0, -8         x15:00000000
           108480000            2695 0000160c 00072783 lw               x15, 0(x14)         x15=00000020 x14:1a100014  PA:1a100014
           108720000            2701 00001610 0407f793 andi             x15, x15, 64        x15=00000000 x15:00000020
           108760000            2702 00001614 fe078ce3 beq              x15, x0, -8         x15:00000000
           108880000            2705 0000160c 00072783 lw               x15, 0(x14)         x15=00000020 x14:1a100014  PA:1a100014
           109120000            2711 00001610 0407f793 andi             x15, x15, 64        x15=00000000 x15:00000020
           109160000            2712 00001614 fe078ce3 beq              x15, x0, -8         x15:00000000
           109280000            2715 0000160c 00072783 lw               x15, 0(x14)         x15=00000020 x14:1a100014  PA:1a100014
           109520000            2721 00001610 0407f793 andi             x15, x15, 64        x15=00000000 x15:00000020
           109560000            2722 00001614 fe078ce3 beq              x15, x0, -8         x15:00000000
           109680000            2725 0000160c 00072783 lw               x15, 0(x14)         x15=00000020 x14:1a100014  PA:1a100014
           109920000            2731 00001610 0407f793 andi             x15, x15, 64        x15=00000000 x15:00000020
           109960000            2732 00001614 fe078ce3 beq              x15, x0, -8         x15:00000000
           110080000            2735 0000160c 00072783 lw               x15, 0(x14)         x15=00000020 x14:1a100014  PA:1a100014
           110320000            2741 00001610 0407f793 andi             x15, x15, 64        x15=00000000 x15:00000020
           110360000            2742 00001614 fe078ce3 beq              x15, x0, -8         x15:00000000
           110480000            2745 0000160c 00072783 lw               x15, 0(x14)         x15=00000020 x14:1a100014  PA:1a100014
           110720000            2751 00001610 0407f793 andi             x15, x15, 64        x15=00000000 x15:00000020
           110760000            2752 00001614 fe078ce3 beq              x15, x0, -8         x15:00000000
           110880000            2755 0000160c 00072783 lw               x15, 0(x14)         x15=00000020 x14:1a100014  PA:1a100014
           111120000            2761 00001610 0407f793 andi             x15, x15, 64        x15=00000000 x15:00000020
           111160000            2762 00001614 fe078ce3 beq              x15, x0, -8         x15:00000000
           111280000            2765 0000160c 00072783 lw               x15, 0(x14)         x15=00000020 x14:1a100014  PA:1a100014
           111520000            2771 00001610 0407f793 andi             x15, x15, 64        x15=00000000 x15:00000020
           111560000            2772 00001614 fe078ce3 beq              x15, x0, -8         x15:00000000
           111680000            2775 0000160c 00072783 lw               x15, 0(x14)         x15=00000020 x14:1a100014  PA:1a100014
           111920000            2781 00001610 0407f793 andi             x15, x15, 64        x15=00000000 x15:00000020
           111960000            2782 00001614 fe078ce3 beq              x15, x0, -8         x15:00000000
           112080000            2785 0000160c 00072783 lw               x15, 0(x14)         x15=00000020 x14:1a100014  PA:1a100014
           112320000            2791 00001610 0407f793 andi             x15, x15, 64        x15=00000000 x15:00000020
           112360000            2792 00001614 fe078ce3 beq              x15, x0, -8         x15:00000000
           112480000            2795 0000160c 00072783 lw               x15, 0(x14)         x15=00000020 x14:1a100014  PA:1a100014
           112720000            2801 00001610 0407f793 andi             x15, x15, 64        x15=00000000 x15:00000020
           112760000            2802 00001614 fe078ce3 beq              x15, x0, -8         x15:00000000
           112880000            2805 0000160c 00072783 lw               x15, 0(x14)         x15=00000020 x14:1a100014  PA:1a100014
           113120000            2811 00001610 0407f793 andi             x15, x15, 64        x15=00000000 x15:00000020
           113160000            2812 00001614 fe078ce3 beq              x15, x0, -8         x15:00000000
           113280000            2815 0000160c 00072783 lw               x15, 0(x14)         x15=00000020 x14:1a100014  PA:1a100014
           113520000            2821 00001610 0407f793 andi             x15, x15, 64        x15=00000000 x15:00000020
           113560000            2822 00001614 fe078ce3 beq              x15, x0, -8         x15:00000000
           113680000            2825 0000160c 00072783 lw               x15, 0(x14)         x15=00000020 x14:1a100014  PA:1a100014
           113920000            2831 00001610 0407f793 andi             x15, x15, 64        x15=00000000 x15:00000020
           113960000            2832 00001614 fe078ce3 beq              x15, x0, -8         x15:00000000
           114080000            2835 0000160c 00072783 lw               x15, 0(x14)         x15=00000020 x14:1a100014  PA:1a100014
           114320000            2841 00001610 0407f793 andi             x15, x15, 64        x15=00000000 x15:00000020
           114360000            2842 00001614 fe078ce3 beq              x15, x0, -8         x15:00000000
           114480000            2845 0000160c 00072783 lw               x15, 0(x14)         x15=00000020 x14:1a100014  PA:1a100014
           114720000            2851 00001610 0407f793 andi             x15, x15, 64        x15=00000000 x15:00000020
           114760000            2852 00001614 fe078ce3 beq              x15, x0, -8         x15:00000000
           114880000            2855 0000160c 00072783 lw               x15, 0(x14)         x15=00000020 x14:1a100014  PA:1a100014
           115120000            2861 00001610 0407f793 andi             x15, x15, 64        x15=00000000 x15:00000020
           115160000            2862 00001614 fe078ce3 beq              x15, x0, -8         x15:00000000
           115280000            2865 0000160c 00072783 lw               x15, 0(x14)         x15=00000020 x14:1a100014  PA:1a100014
           115520000            2871 00001610 0407f793 andi             x15, x15, 64        x15=00000000 x15:00000020
           115560000            2872 00001614 fe078ce3 beq              x15, x0, -8         x15:00000000
           115680000            2875 0000160c 00072783 lw               x15, 0(x14)         x15=00000020 x14:1a100014  PA:1a100014
           115920000            2881 00001610 0407f793 andi             x15, x15, 64        x15=00000000 x15:00000020
           115960000            2882 00001614 fe078ce3 beq              x15, x0, -8         x15:00000000
           116080000            2885 0000160c 00072783 lw               x15, 0(x14)         x15=00000020 x14:1a100014  PA:1a100014
           116320000            2891 00001610 0407f793 andi             x15, x15, 64        x15=00000000 x15:00000020
           116360000            2892 00001614 fe078ce3 beq              x15, x0, -8         x15:00000000
           116480000            2895 0000160c 00072783 lw               x15, 0(x14)         x15=00000020 x14:1a100014  PA:1a100014
           116720000            2901 00001610 0407f793 andi             x15, x15, 64        x15=00000000 x15:00000020
           116760000            2902 00001614 fe078ce3 beq              x15, x0, -8         x15:00000000
           116880000            2905 0000160c 00072783 lw               x15, 0(x14)         x15=00000020 x14:1a100014  PA:1a100014
           117120000            2911 00001610 0407f793 andi             x15, x15, 64        x15=00000000 x15:00000020
           117160000            2912 00001614 fe078ce3 beq              x15, x0, -8         x15:00000000
           117280000            2915 0000160c 00072783 lw               x15, 0(x14)         x15=00000020 x14:1a100014  PA:1a100014
           117520000            2921 00001610 0407f793 andi             x15, x15, 64        x15=00000000 x15:00000020
           117560000            2922 00001614 fe078ce3 beq              x15, x0, -8         x15:00000000
           117680000            2925 0000160c 00072783 lw               x15, 0(x14)         x15=00000020 x14:1a100014  PA:1a100014
           117920000            2931 00001610 0407f793 andi             x15, x15, 64        x15=00000000 x15:00000020
           117960000            2932 00001614 fe078ce3 beq              x15, x0, -8         x15:00000000
           118080000            2935 0000160c 00072783 lw               x15, 0(x14)         x15=00000020 x14:1a100014  PA:1a100014
           118320000            2941 00001610 0407f793 andi             x15, x15, 64        x15=00000000 x15:00000020
           118360000            2942 00001614 fe078ce3 beq              x15, x0, -8         x15:00000000
           118480000            2945 0000160c 00072783 lw               x15, 0(x14)         x15=00000020 x14:1a100014  PA:1a100014
           118720000            2951 00001610 0407f793 andi             x15, x15, 64        x15=00000000 x15:00000020
           118760000            2952 00001614 fe078ce3 beq              x15, x0, -8         x15:00000000
           118880000            2955 0000160c 00072783 lw               x15, 0(x14)         x15=00000020 x14:1a100014  PA:1a100014
           119120000            2961 00001610 0407f793 andi             x15, x15, 64        x15=00000000 x15:00000020
           119160000            2962 00001614 fe078ce3 beq              x15, x0, -8         x15:00000000
           119280000            2965 0000160c 00072783 lw               x15, 0(x14)         x15=00000020 x14:1a100014  PA:1a100014
           119520000            2971 00001610 0407f793 andi             x15, x15, 64        x15=00000000 x15:00000020
           119560000            2972 00001614 fe078ce3 beq              x15, x0, -8         x15:00000000
           119680000            2975 0000160c 00072783 lw               x15, 0(x14)         x15=00000020 x14:1a100014  PA:1a100014
           119920000            2981 00001610 0407f793 andi             x15, x15, 64        x15=00000000 x15:00000020
           119960000            2982 00001614 fe078ce3 beq              x15, x0, -8         x15:00000000
           120080000            2985 0000160c 00072783 lw               x15, 0(x14)         x15=00000020 x14:1a100014  PA:1a100014
           120320000            2991 00001610 0407f793 andi             x15, x15, 64        x15=00000000 x15:00000020
           120360000            2992 00001614 fe078ce3 beq              x15, x0, -8         x15:00000000
           120480000            2995 0000160c 00072783 lw               x15, 0(x14)         x15=00000020 x14:1a100014  PA:1a100014
           120720000            3001 00001610 0407f793 andi             x15, x15, 64        x15=00000000 x15:00000020
           120760000            3002 00001614 fe078ce3 beq              x15, x0, -8         x15:00000000
           120880000            3005 0000160c 00072783 lw               x15, 0(x14)         x15=00000020 x14:1a100014  PA:1a100014
           121120000            3011 00001610 0407f793 andi             x15, x15, 64        x15=00000000 x15:00000020
           121160000            3012 00001614 fe078ce3 beq              x15, x0, -8         x15:00000000
           121280000            3015 0000160c 00072783 lw               x15, 0(x14)         x15=00000020 x14:1a100014  PA:1a100014
           121520000            3021 00001610 0407f793 andi             x15, x15, 64        x15=00000000 x15:00000020
           121560000            3022 00001614 fe078ce3 beq              x15, x0, -8         x15:00000000
           121680000            3025 0000160c 00072783 lw               x15, 0(x14)         x15=00000020 x14:1a100014  PA:1a100014
           121920000            3031 00001610 0407f793 andi             x15, x15, 64        x15=00000000 x15:00000020
           121960000            3032 00001614 fe078ce3 beq              x15, x0, -8         x15:00000000
           122080000            3035 0000160c 00072783 lw               x15, 0(x14)         x15=00000020 x14:1a100014  PA:1a100014
           122320000            3041 00001610 0407f793 andi             x15, x15, 64        x15=00000000 x15:00000020
           122360000            3042 00001614 fe078ce3 beq              x15, x0, -8         x15:00000000
           122480000            3045 0000160c 00072783 lw               x15, 0(x14)         x15=00000020 x14:1a100014  PA:1a100014
           122720000            3051 00001610 0407f793 andi             x15, x15, 64        x15=00000000 x15:00000020
           122760000            3052 00001614 fe078ce3 beq              x15, x0, -8         x15:00000000
           122880000            3055 0000160c 00072783 lw               x15, 0(x14)         x15=00000020 x14:1a100014  PA:1a100014
           123120000            3061 00001610 0407f793 andi             x15, x15, 64        x15=00000000 x15:00000020
           123160000            3062 00001614 fe078ce3 beq              x15, x0, -8         x15:00000000
           123280000            3065 0000160c 00072783 lw               x15, 0(x14)         x15=00000020 x14:1a100014  PA:1a100014
           123520000            3071 00001610 0407f793 andi             x15, x15, 64        x15=00000000 x15:00000020
           123560000            3072 00001614 fe078ce3 beq              x15, x0, -8         x15:00000000
           123680000            3075 0000160c 00072783 lw               x15, 0(x14)         x15=00000020 x14:1a100014  PA:1a100014
           123920000            3081 00001610 0407f793 andi             x15, x15, 64        x15=00000000 x15:00000020
           123960000            3082 00001614 fe078ce3 beq              x15, x0, -8         x15:00000000
           124080000            3085 0000160c 00072783 lw               x15, 0(x14)         x15=00000020 x14:1a100014  PA:1a100014
           124320000            3091 00001610 0407f793 andi             x15, x15, 64        x15=00000000 x15:00000020
           124360000            3092 00001614 fe078ce3 beq              x15, x0, -8         x15:00000000
           124480000            3095 0000160c 00072783 lw               x15, 0(x14)         x15=00000020 x14:1a100014  PA:1a100014
           124720000            3101 00001610 0407f793 andi             x15, x15, 64        x15=00000000 x15:00000020
           124760000            3102 00001614 fe078ce3 beq              x15, x0, -8         x15:00000000
           124880000            3105 0000160c 00072783 lw               x15, 0(x14)         x15=00000020 x14:1a100014  PA:1a100014
           125120000            3111 00001610 0407f793 andi             x15, x15, 64        x15=00000000 x15:00000020
           125160000            3112 00001614 fe078ce3 beq              x15, x0, -8         x15:00000000
           125280000            3115 0000160c 00072783 lw               x15, 0(x14)         x15=00000020 x14:1a100014  PA:1a100014
           125520000            3121 00001610 0407f793 andi             x15, x15, 64        x15=00000000 x15:00000020
           125560000            3122 00001614 fe078ce3 beq              x15, x0, -8         x15:00000000
           125680000            3125 0000160c 00072783 lw               x15, 0(x14)         x15=00000020 x14:1a100014  PA:1a100014
           125920000            3131 00001610 0407f793 andi             x15, x15, 64        x15=00000000 x15:00000020
           125960000            3132 00001614 fe078ce3 beq              x15, x0, -8         x15:00000000
           126080000            3135 0000160c 00072783 lw               x15, 0(x14)         x15=00000020 x14:1a100014  PA:1a100014
           126320000            3141 00001610 0407f793 andi             x15, x15, 64        x15=00000000 x15:00000020
           126360000            3142 00001614 fe078ce3 beq              x15, x0, -8         x15:00000000
           126480000            3145 0000160c 00072783 lw               x15, 0(x14)         x15=00000020 x14:1a100014  PA:1a100014
           126720000            3151 00001610 0407f793 andi             x15, x15, 64        x15=00000000 x15:00000020
           126760000            3152 00001614 fe078ce3 beq              x15, x0, -8         x15:00000000
           126880000            3155 0000160c 00072783 lw               x15, 0(x14)         x15=00000020 x14:1a100014  PA:1a100014
           127120000            3161 00001610 0407f793 andi             x15, x15, 64        x15=00000000 x15:00000020
           127160000            3162 00001614 fe078ce3 beq              x15, x0, -8         x15:00000000
           127280000            3165 0000160c 00072783 lw               x15, 0(x14)         x15=00000020 x14:1a100014  PA:1a100014
           127520000            3171 00001610 0407f793 andi             x15, x15, 64        x15=00000000 x15:00000020
           127560000            3172 00001614 fe078ce3 beq              x15, x0, -8         x15:00000000
           127680000            3175 0000160c 00072783 lw               x15, 0(x14)         x15=00000020 x14:1a100014  PA:1a100014
           127920000            3181 00001610 0407f793 andi             x15, x15, 64        x15=00000000 x15:00000020
           127960000            3182 00001614 fe078ce3 beq              x15, x0, -8         x15:00000000
           128080000            3185 0000160c 00072783 lw               x15, 0(x14)         x15=00000020 x14:1a100014  PA:1a100014
           128320000            3191 00001610 0407f793 andi             x15, x15, 64        x15=00000000 x15:00000020
           128360000            3192 00001614 fe078ce3 beq              x15, x0, -8         x15:00000000
           128480000            3195 0000160c 00072783 lw               x15, 0(x14)         x15=00000020 x14:1a100014  PA:1a100014
           128720000            3201 00001610 0407f793 andi             x15, x15, 64        x15=00000000 x15:00000020
           128760000            3202 00001614 fe078ce3 beq              x15, x0, -8         x15:00000000
           128880000            3205 0000160c 00072783 lw               x15, 0(x14)         x15=00000020 x14:1a100014  PA:1a100014
           129120000            3211 00001610 0407f793 andi             x15, x15, 64        x15=00000000 x15:00000020
           129160000            3212 00001614 fe078ce3 beq              x15, x0, -8         x15:00000000
           129280000            3215 0000160c 00072783 lw               x15, 0(x14)         x15=00000020 x14:1a100014  PA:1a100014
           129520000            3221 00001610 0407f793 andi             x15, x15, 64        x15=00000000 x15:00000020
           129560000            3222 00001614 fe078ce3 beq              x15, x0, -8         x15:00000000
           129680000            3225 0000160c 00072783 lw               x15, 0(x14)         x15=00000020 x14:1a100014  PA:1a100014
           129920000            3231 00001610 0407f793 andi             x15, x15, 64        x15=00000000 x15:00000020
           129960000            3232 00001614 fe078ce3 beq              x15, x0, -8         x15:00000000
           130080000            3235 0000160c 00072783 lw               x15, 0(x14)         x15=00000020 x14:1a100014  PA:1a100014
           130320000            3241 00001610 0407f793 andi             x15, x15, 64        x15=00000000 x15:00000020
           130360000            3242 00001614 fe078ce3 beq              x15, x0, -8         x15:00000000
           130480000            3245 0000160c 00072783 lw               x15, 0(x14)         x15=00000020 x14:1a100014  PA:1a100014
           130720000            3251 00001610 0407f793 andi             x15, x15, 64        x15=00000000 x15:00000020
           130760000            3252 00001614 fe078ce3 beq              x15, x0, -8         x15:00000000
           130880000            3255 0000160c 00072783 lw               x15, 0(x14)         x15=00000020 x14:1a100014  PA:1a100014
           131120000            3261 00001610 0407f793 andi             x15, x15, 64        x15=00000000 x15:00000020
           131160000            3262 00001614 fe078ce3 beq              x15, x0, -8         x15:00000000
           131280000            3265 0000160c 00072783 lw               x15, 0(x14)         x15=00000020 x14:1a100014  PA:1a100014
           131520000            3271 00001610 0407f793 andi             x15, x15, 64        x15=00000000 x15:00000020
           131560000            3272 00001614 fe078ce3 beq              x15, x0, -8         x15:00000000
           131680000            3275 0000160c 00072783 lw               x15, 0(x14)         x15=00000020 x14:1a100014  PA:1a100014
           131920000            3281 00001610 0407f793 andi             x15, x15, 64        x15=00000000 x15:00000020
           131960000            3282 00001614 fe078ce3 beq              x15, x0, -8         x15:00000000
           132080000            3285 0000160c 00072783 lw               x15, 0(x14)         x15=00000020 x14:1a100014  PA:1a100014
           132320000            3291 00001610 0407f793 andi             x15, x15, 64        x15=00000000 x15:00000020
           132360000            3292 00001614 fe078ce3 beq              x15, x0, -8         x15:00000000
           132480000            3295 0000160c 00072783 lw               x15, 0(x14)         x15=00000020 x14:1a100014  PA:1a100014
           132720000            3301 00001610 0407f793 andi             x15, x15, 64        x15=00000000 x15:00000020
           132760000            3302 00001614 fe078ce3 beq              x15, x0, -8         x15:00000000
           132880000            3305 0000160c 00072783 lw               x15, 0(x14)         x15=00000020 x14:1a100014  PA:1a100014
           133120000            3311 00001610 0407f793 andi             x15, x15, 64        x15=00000000 x15:00000020
           133160000            3312 00001614 fe078ce3 beq              x15, x0, -8         x15:00000000
           133280000            3315 0000160c 00072783 lw               x15, 0(x14)         x15=00000020 x14:1a100014  PA:1a100014
           133520000            3321 00001610 0407f793 andi             x15, x15, 64        x15=00000000 x15:00000020
           133560000            3322 00001614 fe078ce3 beq              x15, x0, -8         x15:00000000
           133680000            3325 0000160c 00072783 lw               x15, 0(x14)         x15=00000020 x14:1a100014  PA:1a100014
           133920000            3331 00001610 0407f793 andi             x15, x15, 64        x15=00000000 x15:00000020
           133960000            3332 00001614 fe078ce3 beq              x15, x0, -8         x15:00000000
           134080000            3335 0000160c 00072783 lw               x15, 0(x14)         x15=00000020 x14:1a100014  PA:1a100014
           134320000            3341 00001610 0407f793 andi             x15, x15, 64        x15=00000000 x15:00000020
           134360000            3342 00001614 fe078ce3 beq              x15, x0, -8         x15:00000000
           134480000            3345 0000160c 00072783 lw               x15, 0(x14)         x15=00000020 x14:1a100014  PA:1a100014
           134720000            3351 00001610 0407f793 andi             x15, x15, 64        x15=00000000 x15:00000020
           134760000            3352 00001614 fe078ce3 beq              x15, x0, -8         x15:00000000
           134880000            3355 0000160c 00072783 lw               x15, 0(x14)         x15=00000020 x14:1a100014  PA:1a100014
           135120000            3361 00001610 0407f793 andi             x15, x15, 64        x15=00000000 x15:00000020
           135160000            3362 00001614 fe078ce3 beq              x15, x0, -8         x15:00000000
           135280000            3365 0000160c 00072783 lw               x15, 0(x14)         x15=00000020 x14:1a100014  PA:1a100014
           135520000            3371 00001610 0407f793 andi             x15, x15, 64        x15=00000000 x15:00000020
           135560000            3372 00001614 fe078ce3 beq              x15, x0, -8         x15:00000000
           135680000            3375 0000160c 00072783 lw               x15, 0(x14)         x15=00000020 x14:1a100014  PA:1a100014
           135920000            3381 00001610 0407f793 andi             x15, x15, 64        x15=00000000 x15:00000020
           135960000            3382 00001614 fe078ce3 beq              x15, x0, -8         x15:00000000
           136080000            3385 0000160c 00072783 lw               x15, 0(x14)         x15=00000020 x14:1a100014  PA:1a100014
           136320000            3391 00001610 0407f793 andi             x15, x15, 64        x15=00000000 x15:00000020
           136360000            3392 00001614 fe078ce3 beq              x15, x0, -8         x15:00000000
           136480000            3395 0000160c 00072783 lw               x15, 0(x14)         x15=00000020 x14:1a100014  PA:1a100014
           136720000            3401 00001610 0407f793 andi             x15, x15, 64        x15=00000000 x15:00000020
           136760000            3402 00001614 fe078ce3 beq              x15, x0, -8         x15:00000000
           136880000            3405 0000160c 00072783 lw               x15, 0(x14)         x15=00000020 x14:1a100014  PA:1a100014
           137120000            3411 00001610 0407f793 andi             x15, x15, 64        x15=00000000 x15:00000020
           137160000            3412 00001614 fe078ce3 beq              x15, x0, -8         x15:00000000
           137280000            3415 0000160c 00072783 lw               x15, 0(x14)         x15=00000020 x14:1a100014  PA:1a100014
           137520000            3421 00001610 0407f793 andi             x15, x15, 64        x15=00000000 x15:00000020
           137560000            3422 00001614 fe078ce3 beq              x15, x0, -8         x15:00000000
           137680000            3425 0000160c 00072783 lw               x15, 0(x14)         x15=00000020 x14:1a100014  PA:1a100014
           137920000            3431 00001610 0407f793 andi             x15, x15, 64        x15=00000000 x15:00000020
           137960000            3432 00001614 fe078ce3 beq              x15, x0, -8         x15:00000000
           138080000            3435 0000160c 00072783 lw               x15, 0(x14)         x15=00000020 x14:1a100014  PA:1a100014
           138320000            3441 00001610 0407f793 andi             x15, x15, 64        x15=00000000 x15:00000020
           138360000            3442 00001614 fe078ce3 beq              x15, x0, -8         x15:00000000
           138480000            3445 0000160c 00072783 lw               x15, 0(x14)         x15=00000020 x14:1a100014  PA:1a100014
           138720000            3451 00001610 0407f793 andi             x15, x15, 64        x15=00000000 x15:00000020
           138760000            3452 00001614 fe078ce3 beq              x15, x0, -8         x15:00000000
           138880000            3455 0000160c 00072783 lw               x15, 0(x14)         x15=00000020 x14:1a100014  PA:1a100014
           139120000            3461 00001610 0407f793 andi             x15, x15, 64        x15=00000000 x15:00000020
           139160000            3462 00001614 fe078ce3 beq              x15, x0, -8         x15:00000000
           139280000            3465 0000160c 00072783 lw               x15, 0(x14)         x15=00000020 x14:1a100014  PA:1a100014
           139520000            3471 00001610 0407f793 andi             x15, x15, 64        x15=00000000 x15:00000020
           139560000            3472 00001614 fe078ce3 beq              x15, x0, -8         x15:00000000
           139680000            3475 0000160c 00072783 lw               x15, 0(x14)         x15=00000020 x14:1a100014  PA:1a100014
           139920000            3481 00001610 0407f793 andi             x15, x15, 64        x15=00000000 x15:00000020
           139960000            3482 00001614 fe078ce3 beq              x15, x0, -8         x15:00000000
           140080000            3485 0000160c 00072783 lw               x15, 0(x14)         x15=00000020 x14:1a100014  PA:1a100014
           140320000            3491 00001610 0407f793 andi             x15, x15, 64        x15=00000000 x15:00000020
           140360000            3492 00001614 fe078ce3 beq              x15, x0, -8         x15:00000000
           140480000            3495 0000160c 00072783 lw               x15, 0(x14)         x15=00000020 x14:1a100014  PA:1a100014
           140720000            3501 00001610 0407f793 andi             x15, x15, 64        x15=00000000 x15:00000020
           140760000            3502 00001614 fe078ce3 beq              x15, x0, -8         x15:00000000
           140880000            3505 0000160c 00072783 lw               x15, 0(x14)         x15=00000020 x14:1a100014  PA:1a100014
           141120000            3511 00001610 0407f793 andi             x15, x15, 64        x15=00000000 x15:00000020
           141160000            3512 00001614 fe078ce3 beq              x15, x0, -8         x15:00000000
           141280000            3515 0000160c 00072783 lw               x15, 0(x14)         x15=00000020 x14:1a100014  PA:1a100014
           141520000            3521 00001610 0407f793 andi             x15, x15, 64        x15=00000000 x15:00000020
           141560000            3522 00001614 fe078ce3 beq              x15, x0, -8         x15:00000000
           141680000            3525 0000160c 00072783 lw               x15, 0(x14)         x15=00000020 x14:1a100014  PA:1a100014
           141920000            3531 00001610 0407f793 andi             x15, x15, 64        x15=00000000 x15:00000020
           141960000            3532 00001614 fe078ce3 beq              x15, x0, -8         x15:00000000
           142080000            3535 0000160c 00072783 lw               x15, 0(x14)         x15=00000020 x14:1a100014  PA:1a100014
           142320000            3541 00001610 0407f793 andi             x15, x15, 64        x15=00000000 x15:00000020
           142360000            3542 00001614 fe078ce3 beq              x15, x0, -8         x15:00000000
           142480000            3545 0000160c 00072783 lw               x15, 0(x14)         x15=00000020 x14:1a100014  PA:1a100014
           142720000            3551 00001610 0407f793 andi             x15, x15, 64        x15=00000000 x15:00000020
           142760000            3552 00001614 fe078ce3 beq              x15, x0, -8         x15:00000000
           142880000            3555 0000160c 00072783 lw               x15, 0(x14)         x15=00000020 x14:1a100014  PA:1a100014
           143120000            3561 00001610 0407f793 andi             x15, x15, 64        x15=00000000 x15:00000020
           143160000            3562 00001614 fe078ce3 beq              x15, x0, -8         x15:00000000
           143280000            3565 0000160c 00072783 lw               x15, 0(x14)         x15=00000020 x14:1a100014  PA:1a100014
           143520000            3571 00001610 0407f793 andi             x15, x15, 64        x15=00000000 x15:00000020
           143560000            3572 00001614 fe078ce3 beq              x15, x0, -8         x15:00000000
           143680000            3575 0000160c 00072783 lw               x15, 0(x14)         x15=00000020 x14:1a100014  PA:1a100014
           143920000            3581 00001610 0407f793 andi             x15, x15, 64        x15=00000000 x15:00000020
           143960000            3582 00001614 fe078ce3 beq              x15, x0, -8         x15:00000000
           144080000            3585 0000160c 00072783 lw               x15, 0(x14)         x15=00000020 x14:1a100014  PA:1a100014
           144320000            3591 00001610 0407f793 andi             x15, x15, 64        x15=00000000 x15:00000020
           144360000            3592 00001614 fe078ce3 beq              x15, x0, -8         x15:00000000
           144480000            3595 0000160c 00072783 lw               x15, 0(x14)         x15=00000020 x14:1a100014  PA:1a100014
           144720000            3601 00001610 0407f793 andi             x15, x15, 64        x15=00000000 x15:00000020
           144760000            3602 00001614 fe078ce3 beq              x15, x0, -8         x15:00000000
           144880000            3605 0000160c 00072783 lw               x15, 0(x14)         x15=00000020 x14:1a100014  PA:1a100014
           145120000            3611 00001610 0407f793 andi             x15, x15, 64        x15=00000000 x15:00000020
           145160000            3612 00001614 fe078ce3 beq              x15, x0, -8         x15:00000000
           145280000            3615 0000160c 00072783 lw               x15, 0(x14)         x15=00000020 x14:1a100014  PA:1a100014
           145520000            3621 00001610 0407f793 andi             x15, x15, 64        x15=00000000 x15:00000020
           145560000            3622 00001614 fe078ce3 beq              x15, x0, -8         x15:00000000
           145680000            3625 0000160c 00072783 lw               x15, 0(x14)         x15=00000020 x14:1a100014  PA:1a100014
           145920000            3631 00001610 0407f793 andi             x15, x15, 64        x15=00000000 x15:00000020
           145960000            3632 00001614 fe078ce3 beq              x15, x0, -8         x15:00000000
           146080000            3635 0000160c 00072783 lw               x15, 0(x14)         x15=00000020 x14:1a100014  PA:1a100014
           146320000            3641 00001610 0407f793 andi             x15, x15, 64        x15=00000000 x15:00000020
           146360000            3642 00001614 fe078ce3 beq              x15, x0, -8         x15:00000000
           146480000            3645 0000160c 00072783 lw               x15, 0(x14)         x15=00000020 x14:1a100014  PA:1a100014
           146720000            3651 00001610 0407f793 andi             x15, x15, 64        x15=00000000 x15:00000020
           146760000            3652 00001614 fe078ce3 beq              x15, x0, -8         x15:00000000
           146880000            3655 0000160c 00072783 lw               x15, 0(x14)         x15=00000020 x14:1a100014  PA:1a100014
           147120000            3661 00001610 0407f793 andi             x15, x15, 64        x15=00000000 x15:00000020
           147160000            3662 00001614 fe078ce3 beq              x15, x0, -8         x15:00000000
           147280000            3665 0000160c 00072783 lw               x15, 0(x14)         x15=00000020 x14:1a100014  PA:1a100014
           147520000            3671 00001610 0407f793 andi             x15, x15, 64        x15=00000000 x15:00000020
           147560000            3672 00001614 fe078ce3 beq              x15, x0, -8         x15:00000000
           147680000            3675 0000160c 00072783 lw               x15, 0(x14)         x15=00000020 x14:1a100014  PA:1a100014
           147920000            3681 00001610 0407f793 andi             x15, x15, 64        x15=00000000 x15:00000020
           147960000            3682 00001614 fe078ce3 beq              x15, x0, -8         x15:00000000
           148080000            3685 0000160c 00072783 lw               x15, 0(x14)         x15=00000020 x14:1a100014  PA:1a100014
           148320000            3691 00001610 0407f793 andi             x15, x15, 64        x15=00000000 x15:00000020
           148360000            3692 00001614 fe078ce3 beq              x15, x0, -8         x15:00000000
           148480000            3695 0000160c 00072783 lw               x15, 0(x14)         x15=00000020 x14:1a100014  PA:1a100014
           148720000            3701 00001610 0407f793 andi             x15, x15, 64        x15=00000000 x15:00000020
           148760000            3702 00001614 fe078ce3 beq              x15, x0, -8         x15:00000000
           148880000            3705 0000160c 00072783 lw               x15, 0(x14)         x15=00000020 x14:1a100014  PA:1a100014
           149120000            3711 00001610 0407f793 andi             x15, x15, 64        x15=00000000 x15:00000020
           149160000            3712 00001614 fe078ce3 beq              x15, x0, -8         x15:00000000
           149280000            3715 0000160c 00072783 lw               x15, 0(x14)         x15=00000020 x14:1a100014  PA:1a100014
           149520000            3721 00001610 0407f793 andi             x15, x15, 64        x15=00000000 x15:00000020
           149560000            3722 00001614 fe078ce3 beq              x15, x0, -8         x15:00000000
           149680000            3725 0000160c 00072783 lw               x15, 0(x14)         x15=00000020 x14:1a100014  PA:1a100014
           149920000            3731 00001610 0407f793 andi             x15, x15, 64        x15=00000000 x15:00000020
           149960000            3732 00001614 fe078ce3 beq              x15, x0, -8         x15:00000000
           150080000            3735 0000160c 00072783 lw               x15, 0(x14)         x15=00000020 x14:1a100014  PA:1a100014
           150320000            3741 00001610 0407f793 andi             x15, x15, 64        x15=00000000 x15:00000020
           150360000            3742 00001614 fe078ce3 beq              x15, x0, -8         x15:00000000
           150480000            3745 0000160c 00072783 lw               x15, 0(x14)         x15=00000020 x14:1a100014  PA:1a100014
           150720000            3751 00001610 0407f793 andi             x15, x15, 64        x15=00000000 x15:00000020
           150760000            3752 00001614 fe078ce3 beq              x15, x0, -8         x15:00000000
           150880000            3755 0000160c 00072783 lw               x15, 0(x14)         x15=00000020 x14:1a100014  PA:1a100014
           151120000            3761 00001610 0407f793 andi             x15, x15, 64        x15=00000000 x15:00000020
           151160000            3762 00001614 fe078ce3 beq              x15, x0, -8         x15:00000000
           151280000            3765 0000160c 00072783 lw               x15, 0(x14)         x15=00000020 x14:1a100014  PA:1a100014
           151520000            3771 00001610 0407f793 andi             x15, x15, 64        x15=00000000 x15:00000020
           151560000            3772 00001614 fe078ce3 beq              x15, x0, -8         x15:00000000
           151680000            3775 0000160c 00072783 lw               x15, 0(x14)         x15=00000020 x14:1a100014  PA:1a100014
           151920000            3781 00001610 0407f793 andi             x15, x15, 64        x15=00000000 x15:00000020
           151960000            3782 00001614 fe078ce3 beq              x15, x0, -8         x15:00000000
           152080000            3785 0000160c 00072783 lw               x15, 0(x14)         x15=00000020 x14:1a100014  PA:1a100014
           152320000            3791 00001610 0407f793 andi             x15, x15, 64        x15=00000000 x15:00000020
           152360000            3792 00001614 fe078ce3 beq              x15, x0, -8         x15:00000000
           152480000            3795 0000160c 00072783 lw               x15, 0(x14)         x15=00000020 x14:1a100014  PA:1a100014
           152720000            3801 00001610 0407f793 andi             x15, x15, 64        x15=00000000 x15:00000020
           152760000            3802 00001614 fe078ce3 beq              x15, x0, -8         x15:00000000
           152880000            3805 0000160c 00072783 lw               x15, 0(x14)         x15=00000020 x14:1a100014  PA:1a100014
           153120000            3811 00001610 0407f793 andi             x15, x15, 64        x15=00000000 x15:00000020
           153160000            3812 00001614 fe078ce3 beq              x15, x0, -8         x15:00000000
           153280000            3815 0000160c 00072783 lw               x15, 0(x14)         x15=00000020 x14:1a100014  PA:1a100014
           153520000            3821 00001610 0407f793 andi             x15, x15, 64        x15=00000000 x15:00000020
           153560000            3822 00001614 fe078ce3 beq              x15, x0, -8         x15:00000000
           153680000            3825 0000160c 00072783 lw               x15, 0(x14)         x15=00000020 x14:1a100014  PA:1a100014
           153920000            3831 00001610 0407f793 andi             x15, x15, 64        x15=00000000 x15:00000020
           153960000            3832 00001614 fe078ce3 beq              x15, x0, -8         x15:00000000
           154080000            3835 0000160c 00072783 lw               x15, 0(x14)         x15=00000020 x14:1a100014  PA:1a100014
           154320000            3841 00001610 0407f793 andi             x15, x15, 64        x15=00000000 x15:00000020
           154360000            3842 00001614 fe078ce3 beq              x15, x0, -8         x15:00000000
           154480000            3845 0000160c 00072783 lw               x15, 0(x14)         x15=00000020 x14:1a100014  PA:1a100014
           154720000            3851 00001610 0407f793 andi             x15, x15, 64        x15=00000000 x15:00000020
           154760000            3852 00001614 fe078ce3 beq              x15, x0, -8         x15:00000000
           154880000            3855 0000160c 00072783 lw               x15, 0(x14)         x15=00000020 x14:1a100014  PA:1a100014
           155120000            3861 00001610 0407f793 andi             x15, x15, 64        x15=00000000 x15:00000020
           155160000            3862 00001614 fe078ce3 beq              x15, x0, -8         x15:00000000
           155280000            3865 0000160c 00072783 lw               x15, 0(x14)         x15=00000020 x14:1a100014  PA:1a100014
           155520000            3871 00001610 0407f793 andi             x15, x15, 64        x15=00000000 x15:00000020
           155560000            3872 00001614 fe078ce3 beq              x15, x0, -8         x15:00000000
           155680000            3875 0000160c 00072783 lw               x15, 0(x14)         x15=00000020 x14:1a100014  PA:1a100014
           155920000            3881 00001610 0407f793 andi             x15, x15, 64        x15=00000000 x15:00000020
           155960000            3882 00001614 fe078ce3 beq              x15, x0, -8         x15:00000000
           156080000            3885 0000160c 00072783 lw               x15, 0(x14)         x15=00000020 x14:1a100014  PA:1a100014
           156320000            3891 00001610 0407f793 andi             x15, x15, 64        x15=00000000 x15:00000020
           156360000            3892 00001614 fe078ce3 beq              x15, x0, -8         x15:00000000
           156480000            3895 0000160c 00072783 lw               x15, 0(x14)         x15=00000020 x14:1a100014  PA:1a100014
           156720000            3901 00001610 0407f793 andi             x15, x15, 64        x15=00000000 x15:00000020
           156760000            3902 00001614 fe078ce3 beq              x15, x0, -8         x15:00000000
           156880000            3905 0000160c 00072783 lw               x15, 0(x14)         x15=00000020 x14:1a100014  PA:1a100014
           157120000            3911 00001610 0407f793 andi             x15, x15, 64        x15=00000000 x15:00000020
           157160000            3912 00001614 fe078ce3 beq              x15, x0, -8         x15:00000000
           157280000            3915 0000160c 00072783 lw               x15, 0(x14)         x15=00000020 x14:1a100014  PA:1a100014
           157520000            3921 00001610 0407f793 andi             x15, x15, 64        x15=00000000 x15:00000020
           157560000            3922 00001614 fe078ce3 beq              x15, x0, -8         x15:00000000
           157680000            3925 0000160c 00072783 lw               x15, 0(x14)         x15=00000020 x14:1a100014  PA:1a100014
           157920000            3931 00001610 0407f793 andi             x15, x15, 64        x15=00000000 x15:00000020
           157960000            3932 00001614 fe078ce3 beq              x15, x0, -8         x15:00000000
           158080000            3935 0000160c 00072783 lw               x15, 0(x14)         x15=00000020 x14:1a100014  PA:1a100014
           158320000            3941 00001610 0407f793 andi             x15, x15, 64        x15=00000000 x15:00000020
           158360000            3942 00001614 fe078ce3 beq              x15, x0, -8         x15:00000000
           158480000            3945 0000160c 00072783 lw               x15, 0(x14)         x15=00000020 x14:1a100014  PA:1a100014
           158720000            3951 00001610 0407f793 andi             x15, x15, 64        x15=00000000 x15:00000020
           158760000            3952 00001614 fe078ce3 beq              x15, x0, -8         x15:00000000
           158880000            3955 0000160c 00072783 lw               x15, 0(x14)         x15=00000020 x14:1a100014  PA:1a100014
           159120000            3961 00001610 0407f793 andi             x15, x15, 64        x15=00000000 x15:00000020
           159160000            3962 00001614 fe078ce3 beq              x15, x0, -8         x15:00000000
           159280000            3965 0000160c 00072783 lw               x15, 0(x14)         x15=00000020 x14:1a100014  PA:1a100014
           159520000            3971 00001610 0407f793 andi             x15, x15, 64        x15=00000000 x15:00000020
           159560000            3972 00001614 fe078ce3 beq              x15, x0, -8         x15:00000000
           159680000            3975 0000160c 00072783 lw               x15, 0(x14)         x15=00000020 x14:1a100014  PA:1a100014
           159920000            3981 00001610 0407f793 andi             x15, x15, 64        x15=00000000 x15:00000020
           159960000            3982 00001614 fe078ce3 beq              x15, x0, -8         x15:00000000
           160080000            3985 0000160c 00072783 lw               x15, 0(x14)         x15=00000020 x14:1a100014  PA:1a100014
           160320000            3991 00001610 0407f793 andi             x15, x15, 64        x15=00000000 x15:00000020
           160360000            3992 00001614 fe078ce3 beq              x15, x0, -8         x15:00000000
           160480000            3995 0000160c 00072783 lw               x15, 0(x14)         x15=00000020 x14:1a100014  PA:1a100014
           160720000            4001 00001610 0407f793 andi             x15, x15, 64        x15=00000000 x15:00000020
           160760000            4002 00001614 fe078ce3 beq              x15, x0, -8         x15:00000000
           160880000            4005 0000160c 00072783 lw               x15, 0(x14)         x15=00000020 x14:1a100014  PA:1a100014
           161120000            4011 00001610 0407f793 andi             x15, x15, 64        x15=00000000 x15:00000020
           161160000            4012 00001614 fe078ce3 beq              x15, x0, -8         x15:00000000
           161280000            4015 0000160c 00072783 lw               x15, 0(x14)         x15=00000020 x14:1a100014  PA:1a100014
           161520000            4021 00001610 0407f793 andi             x15, x15, 64        x15=00000000 x15:00000020
           161560000            4022 00001614 fe078ce3 beq              x15, x0, -8         x15:00000000
           161680000            4025 0000160c 00072783 lw               x15, 0(x14)         x15=00000020 x14:1a100014  PA:1a100014
           161920000            4031 00001610 0407f793 andi             x15, x15, 64        x15=00000000 x15:00000020
           161960000            4032 00001614 fe078ce3 beq              x15, x0, -8         x15:00000000
           162080000            4035 0000160c 00072783 lw               x15, 0(x14)         x15=00000020 x14:1a100014  PA:1a100014
           162320000            4041 00001610 0407f793 andi             x15, x15, 64        x15=00000000 x15:00000020
           162360000            4042 00001614 fe078ce3 beq              x15, x0, -8         x15:00000000
           162480000            4045 0000160c 00072783 lw               x15, 0(x14)         x15=00000020 x14:1a100014  PA:1a100014
           162720000            4051 00001610 0407f793 andi             x15, x15, 64        x15=00000000 x15:00000020
           162760000            4052 00001614 fe078ce3 beq              x15, x0, -8         x15:00000000
           162880000            4055 0000160c 00072783 lw               x15, 0(x14)         x15=00000020 x14:1a100014  PA:1a100014
           163120000            4061 00001610 0407f793 andi             x15, x15, 64        x15=00000000 x15:00000020
           163160000            4062 00001614 fe078ce3 beq              x15, x0, -8         x15:00000000
           163280000            4065 0000160c 00072783 lw               x15, 0(x14)         x15=00000020 x14:1a100014  PA:1a100014
           163520000            4071 00001610 0407f793 andi             x15, x15, 64        x15=00000000 x15:00000020
           163560000            4072 00001614 fe078ce3 beq              x15, x0, -8         x15:00000000
           163680000            4075 0000160c 00072783 lw               x15, 0(x14)         x15=00000020 x14:1a100014  PA:1a100014
           163920000            4081 00001610 0407f793 andi             x15, x15, 64        x15=00000000 x15:00000020
           163960000            4082 00001614 fe078ce3 beq              x15, x0, -8         x15:00000000
           164080000            4085 0000160c 00072783 lw               x15, 0(x14)         x15=00000020 x14:1a100014  PA:1a100014
           164320000            4091 00001610 0407f793 andi             x15, x15, 64        x15=00000000 x15:00000020
           164360000            4092 00001614 fe078ce3 beq              x15, x0, -8         x15:00000000
           164480000            4095 0000160c 00072783 lw               x15, 0(x14)         x15=00000020 x14:1a100014  PA:1a100014
           164720000            4101 00001610 0407f793 andi             x15, x15, 64        x15=00000000 x15:00000020
           164760000            4102 00001614 fe078ce3 beq              x15, x0, -8         x15:00000000
           164880000            4105 0000160c 00072783 lw               x15, 0(x14)         x15=00000020 x14:1a100014  PA:1a100014
           165120000            4111 00001610 0407f793 andi             x15, x15, 64        x15=00000000 x15:00000020
           165160000            4112 00001614 fe078ce3 beq              x15, x0, -8         x15:00000000
           165280000            4115 0000160c 00072783 lw               x15, 0(x14)         x15=00000020 x14:1a100014  PA:1a100014
           165520000            4121 00001610 0407f793 andi             x15, x15, 64        x15=00000000 x15:00000020
           165560000            4122 00001614 fe078ce3 beq              x15, x0, -8         x15:00000000
           165680000            4125 0000160c 00072783 lw               x15, 0(x14)         x15=00000020 x14:1a100014  PA:1a100014
           165920000            4131 00001610 0407f793 andi             x15, x15, 64        x15=00000000 x15:00000020
           165960000            4132 00001614 fe078ce3 beq              x15, x0, -8         x15:00000000
           166080000            4135 0000160c 00072783 lw               x15, 0(x14)         x15=00000020 x14:1a100014  PA:1a100014
           166320000            4141 00001610 0407f793 andi             x15, x15, 64        x15=00000000 x15:00000020
           166360000            4142 00001614 fe078ce3 beq              x15, x0, -8         x15:00000000
           166480000            4145 0000160c 00072783 lw               x15, 0(x14)         x15=00000020 x14:1a100014  PA:1a100014
           166720000            4151 00001610 0407f793 andi             x15, x15, 64        x15=00000000 x15:00000020
           166760000            4152 00001614 fe078ce3 beq              x15, x0, -8         x15:00000000
           166880000            4155 0000160c 00072783 lw               x15, 0(x14)         x15=00000020 x14:1a100014  PA:1a100014
           167120000            4161 00001610 0407f793 andi             x15, x15, 64        x15=00000000 x15:00000020
           167160000            4162 00001614 fe078ce3 beq              x15, x0, -8         x15:00000000
           167280000            4165 0000160c 00072783 lw               x15, 0(x14)         x15=00000020 x14:1a100014  PA:1a100014
           167520000            4171 00001610 0407f793 andi             x15, x15, 64        x15=00000000 x15:00000020
           167560000            4172 00001614 fe078ce3 beq              x15, x0, -8         x15:00000000
           167680000            4175 0000160c 00072783 lw               x15, 0(x14)         x15=00000020 x14:1a100014  PA:1a100014
           167920000            4181 00001610 0407f793 andi             x15, x15, 64        x15=00000000 x15:00000020
           167960000            4182 00001614 fe078ce3 beq              x15, x0, -8         x15:00000000
           168080000            4185 0000160c 00072783 lw               x15, 0(x14)         x15=00000020 x14:1a100014  PA:1a100014
           168320000            4191 00001610 0407f793 andi             x15, x15, 64        x15=00000000 x15:00000020
           168360000            4192 00001614 fe078ce3 beq              x15, x0, -8         x15:00000000
           168480000            4195 0000160c 00072783 lw               x15, 0(x14)         x15=00000020 x14:1a100014  PA:1a100014
           168720000            4201 00001610 0407f793 andi             x15, x15, 64        x15=00000000 x15:00000020
           168760000            4202 00001614 fe078ce3 beq              x15, x0, -8         x15:00000000
           168880000            4205 0000160c 00072783 lw               x15, 0(x14)         x15=00000020 x14:1a100014  PA:1a100014
           169120000            4211 00001610 0407f793 andi             x15, x15, 64        x15=00000000 x15:00000020
           169160000            4212 00001614 fe078ce3 beq              x15, x0, -8         x15:00000000
           169280000            4215 0000160c 00072783 lw               x15, 0(x14)         x15=00000020 x14:1a100014  PA:1a100014
           169520000            4221 00001610 0407f793 andi             x15, x15, 64        x15=00000000 x15:00000020
           169560000            4222 00001614 fe078ce3 beq              x15, x0, -8         x15:00000000
           169680000            4225 0000160c 00072783 lw               x15, 0(x14)         x15=00000020 x14:1a100014  PA:1a100014
           169920000            4231 00001610 0407f793 andi             x15, x15, 64        x15=00000000 x15:00000020
           169960000            4232 00001614 fe078ce3 beq              x15, x0, -8         x15:00000000
           170080000            4235 0000160c 00072783 lw               x15, 0(x14)         x15=00000020 x14:1a100014  PA:1a100014
           170320000            4241 00001610 0407f793 andi             x15, x15, 64        x15=00000000 x15:00000020
           170360000            4242 00001614 fe078ce3 beq              x15, x0, -8         x15:00000000
           170480000            4245 0000160c 00072783 lw               x15, 0(x14)         x15=00000020 x14:1a100014  PA:1a100014
           170720000            4251 00001610 0407f793 andi             x15, x15, 64        x15=00000000 x15:00000020
           170760000            4252 00001614 fe078ce3 beq              x15, x0, -8         x15:00000000
           170880000            4255 0000160c 00072783 lw               x15, 0(x14)         x15=00000020 x14:1a100014  PA:1a100014
           171120000            4261 00001610 0407f793 andi             x15, x15, 64        x15=00000000 x15:00000020
           171160000            4262 00001614 fe078ce3 beq              x15, x0, -8         x15:00000000
           171280000            4265 0000160c 00072783 lw               x15, 0(x14)         x15=00000020 x14:1a100014  PA:1a100014
           171520000            4271 00001610 0407f793 andi             x15, x15, 64        x15=00000000 x15:00000020
           171560000            4272 00001614 fe078ce3 beq              x15, x0, -8         x15:00000000
           171680000            4275 0000160c 00072783 lw               x15, 0(x14)         x15=00000020 x14:1a100014  PA:1a100014
           171920000            4281 00001610 0407f793 andi             x15, x15, 64        x15=00000000 x15:00000020
           171960000            4282 00001614 fe078ce3 beq              x15, x0, -8         x15:00000000
           172080000            4285 0000160c 00072783 lw               x15, 0(x14)         x15=00000020 x14:1a100014  PA:1a100014
           172320000            4291 00001610 0407f793 andi             x15, x15, 64        x15=00000000 x15:00000020
           172360000            4292 00001614 fe078ce3 beq              x15, x0, -8         x15:00000000
           172480000            4295 0000160c 00072783 lw               x15, 0(x14)         x15=00000020 x14:1a100014  PA:1a100014
           172720000            4301 00001610 0407f793 andi             x15, x15, 64        x15=00000000 x15:00000020
           172760000            4302 00001614 fe078ce3 beq              x15, x0, -8         x15:00000000
           172880000            4305 0000160c 00072783 lw               x15, 0(x14)         x15=00000020 x14:1a100014  PA:1a100014
           173120000            4311 00001610 0407f793 andi             x15, x15, 64        x15=00000000 x15:00000020
           173160000            4312 00001614 fe078ce3 beq              x15, x0, -8         x15:00000000
           173280000            4315 0000160c 00072783 lw               x15, 0(x14)         x15=00000020 x14:1a100014  PA:1a100014
           173520000            4321 00001610 0407f793 andi             x15, x15, 64        x15=00000000 x15:00000020
           173560000            4322 00001614 fe078ce3 beq              x15, x0, -8         x15:00000000
           173680000            4325 0000160c 00072783 lw               x15, 0(x14)         x15=00000020 x14:1a100014  PA:1a100014
           173920000            4331 00001610 0407f793 andi             x15, x15, 64        x15=00000000 x15:00000020
           173960000            4332 00001614 fe078ce3 beq              x15, x0, -8         x15:00000000
           174080000            4335 0000160c 00072783 lw               x15, 0(x14)         x15=00000020 x14:1a100014  PA:1a100014
           174320000            4341 00001610 0407f793 andi             x15, x15, 64        x15=00000000 x15:00000020
           174360000            4342 00001614 fe078ce3 beq              x15, x0, -8         x15:00000000
           174480000            4345 0000160c 00072783 lw               x15, 0(x14)         x15=00000020 x14:1a100014  PA:1a100014
           174720000            4351 00001610 0407f793 andi             x15, x15, 64        x15=00000000 x15:00000020
           174760000            4352 00001614 fe078ce3 beq              x15, x0, -8         x15:00000000
           174880000            4355 0000160c 00072783 lw               x15, 0(x14)         x15=00000020 x14:1a100014  PA:1a100014
           175120000            4361 00001610 0407f793 andi             x15, x15, 64        x15=00000000 x15:00000020
           175160000            4362 00001614 fe078ce3 beq              x15, x0, -8         x15:00000000
           175280000            4365 0000160c 00072783 lw               x15, 0(x14)         x15=00000020 x14:1a100014  PA:1a100014
           175520000            4371 00001610 0407f793 andi             x15, x15, 64        x15=00000000 x15:00000020
           175560000            4372 00001614 fe078ce3 beq              x15, x0, -8         x15:00000000
           175680000            4375 0000160c 00072783 lw               x15, 0(x14)         x15=00000020 x14:1a100014  PA:1a100014
           175920000            4381 00001610 0407f793 andi             x15, x15, 64        x15=00000000 x15:00000020
           175960000            4382 00001614 fe078ce3 beq              x15, x0, -8         x15:00000000
           176080000            4385 0000160c 00072783 lw               x15, 0(x14)         x15=00000020 x14:1a100014  PA:1a100014
           176320000            4391 00001610 0407f793 andi             x15, x15, 64        x15=00000000 x15:00000020
           176360000            4392 00001614 fe078ce3 beq              x15, x0, -8         x15:00000000
           176480000            4395 0000160c 00072783 lw               x15, 0(x14)         x15=00000020 x14:1a100014  PA:1a100014
           176720000            4401 00001610 0407f793 andi             x15, x15, 64        x15=00000000 x15:00000020
           176760000            4402 00001614 fe078ce3 beq              x15, x0, -8         x15:00000000
           176880000            4405 0000160c 00072783 lw               x15, 0(x14)         x15=00000020 x14:1a100014  PA:1a100014
           177120000            4411 00001610 0407f793 andi             x15, x15, 64        x15=00000000 x15:00000020
           177160000            4412 00001614 fe078ce3 beq              x15, x0, -8         x15:00000000
           177280000            4415 0000160c 00072783 lw               x15, 0(x14)         x15=00000020 x14:1a100014  PA:1a100014
           177520000            4421 00001610 0407f793 andi             x15, x15, 64        x15=00000000 x15:00000020
           177560000            4422 00001614 fe078ce3 beq              x15, x0, -8         x15:00000000
           177680000            4425 0000160c 00072783 lw               x15, 0(x14)         x15=00000020 x14:1a100014  PA:1a100014
           177920000            4431 00001610 0407f793 andi             x15, x15, 64        x15=00000000 x15:00000020
           177960000            4432 00001614 fe078ce3 beq              x15, x0, -8         x15:00000000
           178080000            4435 0000160c 00072783 lw               x15, 0(x14)         x15=00000020 x14:1a100014  PA:1a100014
           178320000            4441 00001610 0407f793 andi             x15, x15, 64        x15=00000000 x15:00000020
           178360000            4442 00001614 fe078ce3 beq              x15, x0, -8         x15:00000000
           178480000            4445 0000160c 00072783 lw               x15, 0(x14)         x15=00000020 x14:1a100014  PA:1a100014
           178720000            4451 00001610 0407f793 andi             x15, x15, 64        x15=00000000 x15:00000020
           178760000            4452 00001614 fe078ce3 beq              x15, x0, -8         x15:00000000
           178880000            4455 0000160c 00072783 lw               x15, 0(x14)         x15=00000020 x14:1a100014  PA:1a100014
           179120000            4461 00001610 0407f793 andi             x15, x15, 64        x15=00000000 x15:00000020
           179160000            4462 00001614 fe078ce3 beq              x15, x0, -8         x15:00000000
           179280000            4465 0000160c 00072783 lw               x15, 0(x14)         x15=00000020 x14:1a100014  PA:1a100014
           179520000            4471 00001610 0407f793 andi             x15, x15, 64        x15=00000000 x15:00000020
           179560000            4472 00001614 fe078ce3 beq              x15, x0, -8         x15:00000000
           179680000            4475 0000160c 00072783 lw               x15, 0(x14)         x15=00000020 x14:1a100014  PA:1a100014
           179920000            4481 00001610 0407f793 andi             x15, x15, 64        x15=00000000 x15:00000020
           179960000            4482 00001614 fe078ce3 beq              x15, x0, -8         x15:00000000
           180080000            4485 0000160c 00072783 lw               x15, 0(x14)         x15=00000020 x14:1a100014  PA:1a100014
           180320000            4491 00001610 0407f793 andi             x15, x15, 64        x15=00000000 x15:00000020
           180360000            4492 00001614 fe078ce3 beq              x15, x0, -8         x15:00000000
           180480000            4495 0000160c 00072783 lw               x15, 0(x14)         x15=00000020 x14:1a100014  PA:1a100014
           180720000            4501 00001610 0407f793 andi             x15, x15, 64        x15=00000000 x15:00000020
           180760000            4502 00001614 fe078ce3 beq              x15, x0, -8         x15:00000000
           180880000            4505 0000160c 00072783 lw               x15, 0(x14)         x15=00000020 x14:1a100014  PA:1a100014
           181120000            4511 00001610 0407f793 andi             x15, x15, 64        x15=00000000 x15:00000020
           181160000            4512 00001614 fe078ce3 beq              x15, x0, -8         x15:00000000
           181280000            4515 0000160c 00072783 lw               x15, 0(x14)         x15=00000020 x14:1a100014  PA:1a100014
           181520000            4521 00001610 0407f793 andi             x15, x15, 64        x15=00000000 x15:00000020
           181560000            4522 00001614 fe078ce3 beq              x15, x0, -8         x15:00000000
           181680000            4525 0000160c 00072783 lw               x15, 0(x14)         x15=00000020 x14:1a100014  PA:1a100014
           181920000            4531 00001610 0407f793 andi             x15, x15, 64        x15=00000000 x15:00000020
           181960000            4532 00001614 fe078ce3 beq              x15, x0, -8         x15:00000000
           182080000            4535 0000160c 00072783 lw               x15, 0(x14)         x15=00000020 x14:1a100014  PA:1a100014
           182320000            4541 00001610 0407f793 andi             x15, x15, 64        x15=00000000 x15:00000020
           182360000            4542 00001614 fe078ce3 beq              x15, x0, -8         x15:00000000
           182480000            4545 0000160c 00072783 lw               x15, 0(x14)         x15=00000020 x14:1a100014  PA:1a100014
           182720000            4551 00001610 0407f793 andi             x15, x15, 64        x15=00000000 x15:00000020
           182760000            4552 00001614 fe078ce3 beq              x15, x0, -8         x15:00000000
           182880000            4555 0000160c 00072783 lw               x15, 0(x14)         x15=00000020 x14:1a100014  PA:1a100014
           183120000            4561 00001610 0407f793 andi             x15, x15, 64        x15=00000000 x15:00000020
           183160000            4562 00001614 fe078ce3 beq              x15, x0, -8         x15:00000000
           183280000            4565 0000160c 00072783 lw               x15, 0(x14)         x15=00000020 x14:1a100014  PA:1a100014
           183520000            4571 00001610 0407f793 andi             x15, x15, 64        x15=00000000 x15:00000020
           183560000            4572 00001614 fe078ce3 beq              x15, x0, -8         x15:00000000
           183680000            4575 0000160c 00072783 lw               x15, 0(x14)         x15=00000020 x14:1a100014  PA:1a100014
           183920000            4581 00001610 0407f793 andi             x15, x15, 64        x15=00000000 x15:00000020
           183960000            4582 00001614 fe078ce3 beq              x15, x0, -8         x15:00000000
           184080000            4585 0000160c 00072783 lw               x15, 0(x14)         x15=00000020 x14:1a100014  PA:1a100014
           184320000            4591 00001610 0407f793 andi             x15, x15, 64        x15=00000000 x15:00000020
           184360000            4592 00001614 fe078ce3 beq              x15, x0, -8         x15:00000000
           184480000            4595 0000160c 00072783 lw               x15, 0(x14)         x15=00000020 x14:1a100014  PA:1a100014
           184720000            4601 00001610 0407f793 andi             x15, x15, 64        x15=00000000 x15:00000020
           184760000            4602 00001614 fe078ce3 beq              x15, x0, -8         x15:00000000
           184880000            4605 0000160c 00072783 lw               x15, 0(x14)         x15=00000020 x14:1a100014  PA:1a100014
           185120000            4611 00001610 0407f793 andi             x15, x15, 64        x15=00000000 x15:00000020
           185160000            4612 00001614 fe078ce3 beq              x15, x0, -8         x15:00000000
           185280000            4615 0000160c 00072783 lw               x15, 0(x14)         x15=00000020 x14:1a100014  PA:1a100014
           185520000            4621 00001610 0407f793 andi             x15, x15, 64        x15=00000000 x15:00000020
           185560000            4622 00001614 fe078ce3 beq              x15, x0, -8         x15:00000000
           185680000            4625 0000160c 00072783 lw               x15, 0(x14)         x15=00000020 x14:1a100014  PA:1a100014
           185920000            4631 00001610 0407f793 andi             x15, x15, 64        x15=00000000 x15:00000020
           185960000            4632 00001614 fe078ce3 beq              x15, x0, -8         x15:00000000
           186080000            4635 0000160c 00072783 lw               x15, 0(x14)         x15=00000020 x14:1a100014  PA:1a100014
           186320000            4641 00001610 0407f793 andi             x15, x15, 64        x15=00000000 x15:00000020
           186360000            4642 00001614 fe078ce3 beq              x15, x0, -8         x15:00000000
           186480000            4645 0000160c 00072783 lw               x15, 0(x14)         x15=00000020 x14:1a100014  PA:1a100014
           186720000            4651 00001610 0407f793 andi             x15, x15, 64        x15=00000000 x15:00000020
           186760000            4652 00001614 fe078ce3 beq              x15, x0, -8         x15:00000000
           186880000            4655 0000160c 00072783 lw               x15, 0(x14)         x15=00000020 x14:1a100014  PA:1a100014
           187120000            4661 00001610 0407f793 andi             x15, x15, 64        x15=00000000 x15:00000020
           187160000            4662 00001614 fe078ce3 beq              x15, x0, -8         x15:00000000
           187280000            4665 0000160c 00072783 lw               x15, 0(x14)         x15=00000020 x14:1a100014  PA:1a100014
           187520000            4671 00001610 0407f793 andi             x15, x15, 64        x15=00000000 x15:00000020
           187560000            4672 00001614 fe078ce3 beq              x15, x0, -8         x15:00000000
           187680000            4675 0000160c 00072783 lw               x15, 0(x14)         x15=00000020 x14:1a100014  PA:1a100014
           187920000            4681 00001610 0407f793 andi             x15, x15, 64        x15=00000000 x15:00000020
           187960000            4682 00001614 fe078ce3 beq              x15, x0, -8         x15:00000000
           188080000            4685 0000160c 00072783 lw               x15, 0(x14)         x15=00000020 x14:1a100014  PA:1a100014
           188320000            4691 00001610 0407f793 andi             x15, x15, 64        x15=00000000 x15:00000020
           188360000            4692 00001614 fe078ce3 beq              x15, x0, -8         x15:00000000
           188480000            4695 0000160c 00072783 lw               x15, 0(x14)         x15=00000020 x14:1a100014  PA:1a100014
           188720000            4701 00001610 0407f793 andi             x15, x15, 64        x15=00000000 x15:00000020
           188760000            4702 00001614 fe078ce3 beq              x15, x0, -8         x15:00000000
           188880000            4705 0000160c 00072783 lw               x15, 0(x14)         x15=00000020 x14:1a100014  PA:1a100014
           189120000            4711 00001610 0407f793 andi             x15, x15, 64        x15=00000000 x15:00000020
           189160000            4712 00001614 fe078ce3 beq              x15, x0, -8         x15:00000000
           189280000            4715 0000160c 00072783 lw               x15, 0(x14)         x15=00000020 x14:1a100014  PA:1a100014
           189520000            4721 00001610 0407f793 andi             x15, x15, 64        x15=00000000 x15:00000020
           189560000            4722 00001614 fe078ce3 beq              x15, x0, -8         x15:00000000
           189680000            4725 0000160c 00072783 lw               x15, 0(x14)         x15=00000020 x14:1a100014  PA:1a100014
           189920000            4731 00001610 0407f793 andi             x15, x15, 64        x15=00000000 x15:00000020
           189960000            4732 00001614 fe078ce3 beq              x15, x0, -8         x15:00000000
           190080000            4735 0000160c 00072783 lw               x15, 0(x14)         x15=00000020 x14:1a100014  PA:1a100014
           190320000            4741 00001610 0407f793 andi             x15, x15, 64        x15=00000000 x15:00000020
           190360000            4742 00001614 fe078ce3 beq              x15, x0, -8         x15:00000000
           190480000            4745 0000160c 00072783 lw               x15, 0(x14)         x15=00000020 x14:1a100014  PA:1a100014
           190720000            4751 00001610 0407f793 andi             x15, x15, 64        x15=00000000 x15:00000020
           190760000            4752 00001614 fe078ce3 beq              x15, x0, -8         x15:00000000
           190880000            4755 0000160c 00072783 lw               x15, 0(x14)         x15=00000020 x14:1a100014  PA:1a100014
           191120000            4761 00001610 0407f793 andi             x15, x15, 64        x15=00000000 x15:00000020
           191160000            4762 00001614 fe078ce3 beq              x15, x0, -8         x15:00000000
           191280000            4765 0000160c 00072783 lw               x15, 0(x14)         x15=00000020 x14:1a100014  PA:1a100014
           191520000            4771 00001610 0407f793 andi             x15, x15, 64        x15=00000000 x15:00000020
           191560000            4772 00001614 fe078ce3 beq              x15, x0, -8         x15:00000000
           191680000            4775 0000160c 00072783 lw               x15, 0(x14)         x15=00000020 x14:1a100014  PA:1a100014
           191920000            4781 00001610 0407f793 andi             x15, x15, 64        x15=00000000 x15:00000020
           191960000            4782 00001614 fe078ce3 beq              x15, x0, -8         x15:00000000
           192080000            4785 0000160c 00072783 lw               x15, 0(x14)         x15=00000020 x14:1a100014  PA:1a100014
           192320000            4791 00001610 0407f793 andi             x15, x15, 64        x15=00000000 x15:00000020
           192360000            4792 00001614 fe078ce3 beq              x15, x0, -8         x15:00000000
           192480000            4795 0000160c 00072783 lw               x15, 0(x14)         x15=00000020 x14:1a100014  PA:1a100014
           192720000            4801 00001610 0407f793 andi             x15, x15, 64        x15=00000000 x15:00000020
           192760000            4802 00001614 fe078ce3 beq              x15, x0, -8         x15:00000000
           192880000            4805 0000160c 00072783 lw               x15, 0(x14)         x15=00000020 x14:1a100014  PA:1a100014
           193120000            4811 00001610 0407f793 andi             x15, x15, 64        x15=00000000 x15:00000020
           193160000            4812 00001614 fe078ce3 beq              x15, x0, -8         x15:00000000
           193280000            4815 0000160c 00072783 lw               x15, 0(x14)         x15=00000020 x14:1a100014  PA:1a100014
           193520000            4821 00001610 0407f793 andi             x15, x15, 64        x15=00000000 x15:00000020
           193560000            4822 00001614 fe078ce3 beq              x15, x0, -8         x15:00000000
           193680000            4825 0000160c 00072783 lw               x15, 0(x14)         x15=00000020 x14:1a100014  PA:1a100014
           193920000            4831 00001610 0407f793 andi             x15, x15, 64        x15=00000000 x15:00000020
           193960000            4832 00001614 fe078ce3 beq              x15, x0, -8         x15:00000000
           194080000            4835 0000160c 00072783 lw               x15, 0(x14)         x15=00000020 x14:1a100014  PA:1a100014
           194320000            4841 00001610 0407f793 andi             x15, x15, 64        x15=00000000 x15:00000020
           194360000            4842 00001614 fe078ce3 beq              x15, x0, -8         x15:00000000
           194480000            4845 0000160c 00072783 lw               x15, 0(x14)         x15=00000020 x14:1a100014  PA:1a100014
           194720000            4851 00001610 0407f793 andi             x15, x15, 64        x15=00000000 x15:00000020
           194760000            4852 00001614 fe078ce3 beq              x15, x0, -8         x15:00000000
           194880000            4855 0000160c 00072783 lw               x15, 0(x14)         x15=00000020 x14:1a100014  PA:1a100014
           195120000            4861 00001610 0407f793 andi             x15, x15, 64        x15=00000000 x15:00000020
           195160000            4862 00001614 fe078ce3 beq              x15, x0, -8         x15:00000000
           195280000            4865 0000160c 00072783 lw               x15, 0(x14)         x15=00000020 x14:1a100014  PA:1a100014
           195520000            4871 00001610 0407f793 andi             x15, x15, 64        x15=00000000 x15:00000020
           195560000            4872 00001614 fe078ce3 beq              x15, x0, -8         x15:00000000
           195680000            4875 0000160c 00072783 lw               x15, 0(x14)         x15=00000020 x14:1a100014  PA:1a100014
           195920000            4881 00001610 0407f793 andi             x15, x15, 64        x15=00000000 x15:00000020
           195960000            4882 00001614 fe078ce3 beq              x15, x0, -8         x15:00000000
           196080000            4885 0000160c 00072783 lw               x15, 0(x14)         x15=00000020 x14:1a100014  PA:1a100014
           196320000            4891 00001610 0407f793 andi             x15, x15, 64        x15=00000000 x15:00000020
           196360000            4892 00001614 fe078ce3 beq              x15, x0, -8         x15:00000000
           196480000            4895 0000160c 00072783 lw               x15, 0(x14)         x15=00000020 x14:1a100014  PA:1a100014
           196720000            4901 00001610 0407f793 andi             x15, x15, 64        x15=00000000 x15:00000020
           196760000            4902 00001614 fe078ce3 beq              x15, x0, -8         x15:00000000
           196880000            4905 0000160c 00072783 lw               x15, 0(x14)         x15=00000020 x14:1a100014  PA:1a100014
           197120000            4911 00001610 0407f793 andi             x15, x15, 64        x15=00000000 x15:00000020
           197160000            4912 00001614 fe078ce3 beq              x15, x0, -8         x15:00000000
           197280000            4915 0000160c 00072783 lw               x15, 0(x14)         x15=00000020 x14:1a100014  PA:1a100014
           197520000            4921 00001610 0407f793 andi             x15, x15, 64        x15=00000000 x15:00000020
           197560000            4922 00001614 fe078ce3 beq              x15, x0, -8         x15:00000000
           197680000            4925 0000160c 00072783 lw               x15, 0(x14)         x15=00000020 x14:1a100014  PA:1a100014
           197920000            4931 00001610 0407f793 andi             x15, x15, 64        x15=00000000 x15:00000020
           197960000            4932 00001614 fe078ce3 beq              x15, x0, -8         x15:00000000
           198080000            4935 0000160c 00072783 lw               x15, 0(x14)         x15=00000020 x14:1a100014  PA:1a100014
           198320000            4941 00001610 0407f793 andi             x15, x15, 64        x15=00000000 x15:00000020
           198360000            4942 00001614 fe078ce3 beq              x15, x0, -8         x15:00000000
           198480000            4945 0000160c 00072783 lw               x15, 0(x14)         x15=00000020 x14:1a100014  PA:1a100014
           198720000            4951 00001610 0407f793 andi             x15, x15, 64        x15=00000000 x15:00000020
           198760000            4952 00001614 fe078ce3 beq              x15, x0, -8         x15:00000000
           198880000            4955 0000160c 00072783 lw               x15, 0(x14)         x15=00000020 x14:1a100014  PA:1a100014
           199120000            4961 00001610 0407f793 andi             x15, x15, 64        x15=00000000 x15:00000020
           199160000            4962 00001614 fe078ce3 beq              x15, x0, -8         x15:00000000
           199280000            4965 0000160c 00072783 lw               x15, 0(x14)         x15=00000020 x14:1a100014  PA:1a100014
           199520000            4971 00001610 0407f793 andi             x15, x15, 64        x15=00000000 x15:00000020
           199560000            4972 00001614 fe078ce3 beq              x15, x0, -8         x15:00000000
           199680000            4975 0000160c 00072783 lw               x15, 0(x14)         x15=00000020 x14:1a100014  PA:1a100014
           199920000            4981 00001610 0407f793 andi             x15, x15, 64        x15=00000000 x15:00000020
           199960000            4982 00001614 fe078ce3 beq              x15, x0, -8         x15:00000000
           200080000            4985 0000160c 00072783 lw               x15, 0(x14)         x15=00000020 x14:1a100014  PA:1a100014
           200320000            4991 00001610 0407f793 andi             x15, x15, 64        x15=00000000 x15:00000020
           200360000            4992 00001614 fe078ce3 beq              x15, x0, -8         x15:00000000
           200480000            4995 0000160c 00072783 lw               x15, 0(x14)         x15=00000020 x14:1a100014  PA:1a100014
           200720000            5001 00001610 0407f793 andi             x15, x15, 64        x15=00000000 x15:00000020
           200760000            5002 00001614 fe078ce3 beq              x15, x0, -8         x15:00000000
           200880000            5005 0000160c 00072783 lw               x15, 0(x14)         x15=00000020 x14:1a100014  PA:1a100014
           201120000            5011 00001610 0407f793 andi             x15, x15, 64        x15=00000000 x15:00000020
           201160000            5012 00001614 fe078ce3 beq              x15, x0, -8         x15:00000000
           201280000            5015 0000160c 00072783 lw               x15, 0(x14)         x15=00000020 x14:1a100014  PA:1a100014
           201520000            5021 00001610 0407f793 andi             x15, x15, 64        x15=00000000 x15:00000020
           201560000            5022 00001614 fe078ce3 beq              x15, x0, -8         x15:00000000
           201680000            5025 0000160c 00072783 lw               x15, 0(x14)         x15=00000020 x14:1a100014  PA:1a100014
           201920000            5031 00001610 0407f793 andi             x15, x15, 64        x15=00000000 x15:00000020
           201960000            5032 00001614 fe078ce3 beq              x15, x0, -8         x15:00000000
           202080000            5035 0000160c 00072783 lw               x15, 0(x14)         x15=00000020 x14:1a100014  PA:1a100014
           202320000            5041 00001610 0407f793 andi             x15, x15, 64        x15=00000000 x15:00000020
           202360000            5042 00001614 fe078ce3 beq              x15, x0, -8         x15:00000000
           202480000            5045 0000160c 00072783 lw               x15, 0(x14)         x15=00000020 x14:1a100014  PA:1a100014
           202720000            5051 00001610 0407f793 andi             x15, x15, 64        x15=00000000 x15:00000020
           202760000            5052 00001614 fe078ce3 beq              x15, x0, -8         x15:00000000
           202880000            5055 0000160c 00072783 lw               x15, 0(x14)         x15=00000020 x14:1a100014  PA:1a100014
           203120000            5061 00001610 0407f793 andi             x15, x15, 64        x15=00000000 x15:00000020
           203160000            5062 00001614 fe078ce3 beq              x15, x0, -8         x15:00000000
           203280000            5065 0000160c 00072783 lw               x15, 0(x14)         x15=00000020 x14:1a100014  PA:1a100014
           203520000            5071 00001610 0407f793 andi             x15, x15, 64        x15=00000000 x15:00000020
           203560000            5072 00001614 fe078ce3 beq              x15, x0, -8         x15:00000000
           203680000            5075 0000160c 00072783 lw               x15, 0(x14)         x15=00000020 x14:1a100014  PA:1a100014
           203920000            5081 00001610 0407f793 andi             x15, x15, 64        x15=00000000 x15:00000020
           203960000            5082 00001614 fe078ce3 beq              x15, x0, -8         x15:00000000
           204080000            5085 0000160c 00072783 lw               x15, 0(x14)         x15=00000020 x14:1a100014  PA:1a100014
           204320000            5091 00001610 0407f793 andi             x15, x15, 64        x15=00000000 x15:00000020
           204360000            5092 00001614 fe078ce3 beq              x15, x0, -8         x15:00000000
           204480000            5095 0000160c 00072783 lw               x15, 0(x14)         x15=00000020 x14:1a100014  PA:1a100014
           204720000            5101 00001610 0407f793 andi             x15, x15, 64        x15=00000000 x15:00000020
           204760000            5102 00001614 fe078ce3 beq              x15, x0, -8         x15:00000000
           204880000            5105 0000160c 00072783 lw               x15, 0(x14)         x15=00000020 x14:1a100014  PA:1a100014
           205120000            5111 00001610 0407f793 andi             x15, x15, 64        x15=00000000 x15:00000020
           205160000            5112 00001614 fe078ce3 beq              x15, x0, -8         x15:00000000
           205280000            5115 0000160c 00072783 lw               x15, 0(x14)         x15=00000020 x14:1a100014  PA:1a100014
           205520000            5121 00001610 0407f793 andi             x15, x15, 64        x15=00000000 x15:00000020
           205560000            5122 00001614 fe078ce3 beq              x15, x0, -8         x15:00000000
           205680000            5125 0000160c 00072783 lw               x15, 0(x14)         x15=00000020 x14:1a100014  PA:1a100014
           205920000            5131 00001610 0407f793 andi             x15, x15, 64        x15=00000000 x15:00000020
           205960000            5132 00001614 fe078ce3 beq              x15, x0, -8         x15:00000000
           206080000            5135 0000160c 00072783 lw               x15, 0(x14)         x15=00000020 x14:1a100014  PA:1a100014
           206320000            5141 00001610 0407f793 andi             x15, x15, 64        x15=00000000 x15:00000020
           206360000            5142 00001614 fe078ce3 beq              x15, x0, -8         x15:00000000
           206480000            5145 0000160c 00072783 lw               x15, 0(x14)         x15=00000020 x14:1a100014  PA:1a100014
           206720000            5151 00001610 0407f793 andi             x15, x15, 64        x15=00000000 x15:00000020
           206760000            5152 00001614 fe078ce3 beq              x15, x0, -8         x15:00000000
           206880000            5155 0000160c 00072783 lw               x15, 0(x14)         x15=00000020 x14:1a100014  PA:1a100014
           207120000            5161 00001610 0407f793 andi             x15, x15, 64        x15=00000000 x15:00000020
           207160000            5162 00001614 fe078ce3 beq              x15, x0, -8         x15:00000000
           207280000            5165 0000160c 00072783 lw               x15, 0(x14)         x15=00000020 x14:1a100014  PA:1a100014
           207520000            5171 00001610 0407f793 andi             x15, x15, 64        x15=00000000 x15:00000020
           207560000            5172 00001614 fe078ce3 beq              x15, x0, -8         x15:00000000
           207680000            5175 0000160c 00072783 lw               x15, 0(x14)         x15=00000020 x14:1a100014  PA:1a100014
           207920000            5181 00001610 0407f793 andi             x15, x15, 64        x15=00000000 x15:00000020
           207960000            5182 00001614 fe078ce3 beq              x15, x0, -8         x15:00000000
           208080000            5185 0000160c 00072783 lw               x15, 0(x14)         x15=00000020 x14:1a100014  PA:1a100014
           208320000            5191 00001610 0407f793 andi             x15, x15, 64        x15=00000000 x15:00000020
           208360000            5192 00001614 fe078ce3 beq              x15, x0, -8         x15:00000000
           208480000            5195 0000160c 00072783 lw               x15, 0(x14)         x15=00000020 x14:1a100014  PA:1a100014
           208720000            5201 00001610 0407f793 andi             x15, x15, 64        x15=00000000 x15:00000020
           208760000            5202 00001614 fe078ce3 beq              x15, x0, -8         x15:00000000
           208880000            5205 0000160c 00072783 lw               x15, 0(x14)         x15=00000020 x14:1a100014  PA:1a100014
           209120000            5211 00001610 0407f793 andi             x15, x15, 64        x15=00000000 x15:00000020
           209160000            5212 00001614 fe078ce3 beq              x15, x0, -8         x15:00000000
           209280000            5215 0000160c 00072783 lw               x15, 0(x14)         x15=00000020 x14:1a100014  PA:1a100014
           209520000            5221 00001610 0407f793 andi             x15, x15, 64        x15=00000000 x15:00000020
           209560000            5222 00001614 fe078ce3 beq              x15, x0, -8         x15:00000000
           209680000            5225 0000160c 00072783 lw               x15, 0(x14)         x15=00000020 x14:1a100014  PA:1a100014
           209920000            5231 00001610 0407f793 andi             x15, x15, 64        x15=00000000 x15:00000020
           209960000            5232 00001614 fe078ce3 beq              x15, x0, -8         x15:00000000
           210080000            5235 0000160c 00072783 lw               x15, 0(x14)         x15=00000020 x14:1a100014  PA:1a100014
           210320000            5241 00001610 0407f793 andi             x15, x15, 64        x15=00000000 x15:00000020
           210360000            5242 00001614 fe078ce3 beq              x15, x0, -8         x15:00000000
           210480000            5245 0000160c 00072783 lw               x15, 0(x14)         x15=00000020 x14:1a100014  PA:1a100014
           210720000            5251 00001610 0407f793 andi             x15, x15, 64        x15=00000000 x15:00000020
           210760000            5252 00001614 fe078ce3 beq              x15, x0, -8         x15:00000000
           210880000            5255 0000160c 00072783 lw               x15, 0(x14)         x15=00000020 x14:1a100014  PA:1a100014
           211120000            5261 00001610 0407f793 andi             x15, x15, 64        x15=00000000 x15:00000020
           211160000            5262 00001614 fe078ce3 beq              x15, x0, -8         x15:00000000
           211280000            5265 0000160c 00072783 lw               x15, 0(x14)         x15=00000020 x14:1a100014  PA:1a100014
           211520000            5271 00001610 0407f793 andi             x15, x15, 64        x15=00000000 x15:00000020
           211560000            5272 00001614 fe078ce3 beq              x15, x0, -8         x15:00000000
           211680000            5275 0000160c 00072783 lw               x15, 0(x14)         x15=00000020 x14:1a100014  PA:1a100014
           211920000            5281 00001610 0407f793 andi             x15, x15, 64        x15=00000000 x15:00000020
           211960000            5282 00001614 fe078ce3 beq              x15, x0, -8         x15:00000000
           212080000            5285 0000160c 00072783 lw               x15, 0(x14)         x15=00000020 x14:1a100014  PA:1a100014
           212320000            5291 00001610 0407f793 andi             x15, x15, 64        x15=00000000 x15:00000020
           212360000            5292 00001614 fe078ce3 beq              x15, x0, -8         x15:00000000
           212480000            5295 0000160c 00072783 lw               x15, 0(x14)         x15=00000020 x14:1a100014  PA:1a100014
           212720000            5301 00001610 0407f793 andi             x15, x15, 64        x15=00000000 x15:00000020
           212760000            5302 00001614 fe078ce3 beq              x15, x0, -8         x15:00000000
           212880000            5305 0000160c 00072783 lw               x15, 0(x14)         x15=00000020 x14:1a100014  PA:1a100014
           213120000            5311 00001610 0407f793 andi             x15, x15, 64        x15=00000000 x15:00000020
           213160000            5312 00001614 fe078ce3 beq              x15, x0, -8         x15:00000000
           213280000            5315 0000160c 00072783 lw               x15, 0(x14)         x15=00000020 x14:1a100014  PA:1a100014
           213520000            5321 00001610 0407f793 andi             x15, x15, 64        x15=00000000 x15:00000020
           213560000            5322 00001614 fe078ce3 beq              x15, x0, -8         x15:00000000
           213680000            5325 0000160c 00072783 lw               x15, 0(x14)         x15=00000020 x14:1a100014  PA:1a100014
           213920000            5331 00001610 0407f793 andi             x15, x15, 64        x15=00000000 x15:00000020
           213960000            5332 00001614 fe078ce3 beq              x15, x0, -8         x15:00000000
           214080000            5335 0000160c 00072783 lw               x15, 0(x14)         x15=00000020 x14:1a100014  PA:1a100014
           214320000            5341 00001610 0407f793 andi             x15, x15, 64        x15=00000000 x15:00000020
           214360000            5342 00001614 fe078ce3 beq              x15, x0, -8         x15:00000000
           214480000            5345 0000160c 00072783 lw               x15, 0(x14)         x15=00000020 x14:1a100014  PA:1a100014
           214720000            5351 00001610 0407f793 andi             x15, x15, 64        x15=00000000 x15:00000020
           214760000            5352 00001614 fe078ce3 beq              x15, x0, -8         x15:00000000
           214880000            5355 0000160c 00072783 lw               x15, 0(x14)         x15=00000020 x14:1a100014  PA:1a100014
           215120000            5361 00001610 0407f793 andi             x15, x15, 64        x15=00000000 x15:00000020
           215160000            5362 00001614 fe078ce3 beq              x15, x0, -8         x15:00000000
           215280000            5365 0000160c 00072783 lw               x15, 0(x14)         x15=00000020 x14:1a100014  PA:1a100014
           215520000            5371 00001610 0407f793 andi             x15, x15, 64        x15=00000000 x15:00000020
           215560000            5372 00001614 fe078ce3 beq              x15, x0, -8         x15:00000000
           215680000            5375 0000160c 00072783 lw               x15, 0(x14)         x15=00000020 x14:1a100014  PA:1a100014
           215920000            5381 00001610 0407f793 andi             x15, x15, 64        x15=00000000 x15:00000020
           215960000            5382 00001614 fe078ce3 beq              x15, x0, -8         x15:00000000
           216080000            5385 0000160c 00072783 lw               x15, 0(x14)         x15=00000020 x14:1a100014  PA:1a100014
           216320000            5391 00001610 0407f793 andi             x15, x15, 64        x15=00000000 x15:00000020
           216360000            5392 00001614 fe078ce3 beq              x15, x0, -8         x15:00000000
           216480000            5395 0000160c 00072783 lw               x15, 0(x14)         x15=00000020 x14:1a100014  PA:1a100014
           216720000            5401 00001610 0407f793 andi             x15, x15, 64        x15=00000000 x15:00000020
           216760000            5402 00001614 fe078ce3 beq              x15, x0, -8         x15:00000000
           216880000            5405 0000160c 00072783 lw               x15, 0(x14)         x15=00000020 x14:1a100014  PA:1a100014
           217120000            5411 00001610 0407f793 andi             x15, x15, 64        x15=00000000 x15:00000020
           217160000            5412 00001614 fe078ce3 beq              x15, x0, -8         x15:00000000
           217280000            5415 0000160c 00072783 lw               x15, 0(x14)         x15=00000020 x14:1a100014  PA:1a100014
           217520000            5421 00001610 0407f793 andi             x15, x15, 64        x15=00000000 x15:00000020
           217560000            5422 00001614 fe078ce3 beq              x15, x0, -8         x15:00000000
           217680000            5425 0000160c 00072783 lw               x15, 0(x14)         x15=00000020 x14:1a100014  PA:1a100014
           217920000            5431 00001610 0407f793 andi             x15, x15, 64        x15=00000000 x15:00000020
           217960000            5432 00001614 fe078ce3 beq              x15, x0, -8         x15:00000000
           218080000            5435 0000160c 00072783 lw               x15, 0(x14)         x15=00000020 x14:1a100014  PA:1a100014
           218320000            5441 00001610 0407f793 andi             x15, x15, 64        x15=00000000 x15:00000020
           218360000            5442 00001614 fe078ce3 beq              x15, x0, -8         x15:00000000
           218480000            5445 0000160c 00072783 lw               x15, 0(x14)         x15=00000020 x14:1a100014  PA:1a100014
           218720000            5451 00001610 0407f793 andi             x15, x15, 64        x15=00000000 x15:00000020
           218760000            5452 00001614 fe078ce3 beq              x15, x0, -8         x15:00000000
           218880000            5455 0000160c 00072783 lw               x15, 0(x14)         x15=00000020 x14:1a100014  PA:1a100014
           219120000            5461 00001610 0407f793 andi             x15, x15, 64        x15=00000000 x15:00000020
           219160000            5462 00001614 fe078ce3 beq              x15, x0, -8         x15:00000000
           219280000            5465 0000160c 00072783 lw               x15, 0(x14)         x15=00000020 x14:1a100014  PA:1a100014
           219520000            5471 00001610 0407f793 andi             x15, x15, 64        x15=00000000 x15:00000020
           219560000            5472 00001614 fe078ce3 beq              x15, x0, -8         x15:00000000
           219680000            5475 0000160c 00072783 lw               x15, 0(x14)         x15=00000020 x14:1a100014  PA:1a100014
           219920000            5481 00001610 0407f793 andi             x15, x15, 64        x15=00000000 x15:00000020
           219960000            5482 00001614 fe078ce3 beq              x15, x0, -8         x15:00000000
           220080000            5485 0000160c 00072783 lw               x15, 0(x14)         x15=00000020 x14:1a100014  PA:1a100014
           220320000            5491 00001610 0407f793 andi             x15, x15, 64        x15=00000000 x15:00000020
           220360000            5492 00001614 fe078ce3 beq              x15, x0, -8         x15:00000000
           220480000            5495 0000160c 00072783 lw               x15, 0(x14)         x15=00000020 x14:1a100014  PA:1a100014
           220720000            5501 00001610 0407f793 andi             x15, x15, 64        x15=00000000 x15:00000020
           220760000            5502 00001614 fe078ce3 beq              x15, x0, -8         x15:00000000
           220880000            5505 0000160c 00072783 lw               x15, 0(x14)         x15=00000020 x14:1a100014  PA:1a100014
           221120000            5511 00001610 0407f793 andi             x15, x15, 64        x15=00000000 x15:00000020
           221160000            5512 00001614 fe078ce3 beq              x15, x0, -8         x15:00000000
           221280000            5515 0000160c 00072783 lw               x15, 0(x14)         x15=00000020 x14:1a100014  PA:1a100014
           221520000            5521 00001610 0407f793 andi             x15, x15, 64        x15=00000000 x15:00000020
           221560000            5522 00001614 fe078ce3 beq              x15, x0, -8         x15:00000000
           221680000            5525 0000160c 00072783 lw               x15, 0(x14)         x15=00000020 x14:1a100014  PA:1a100014
           221920000            5531 00001610 0407f793 andi             x15, x15, 64        x15=00000000 x15:00000020
           221960000            5532 00001614 fe078ce3 beq              x15, x0, -8         x15:00000000
           222080000            5535 0000160c 00072783 lw               x15, 0(x14)         x15=00000020 x14:1a100014  PA:1a100014
           222320000            5541 00001610 0407f793 andi             x15, x15, 64        x15=00000000 x15:00000020
           222360000            5542 00001614 fe078ce3 beq              x15, x0, -8         x15:00000000
           222480000            5545 0000160c 00072783 lw               x15, 0(x14)         x15=00000020 x14:1a100014  PA:1a100014
           222720000            5551 00001610 0407f793 andi             x15, x15, 64        x15=00000000 x15:00000020
           222760000            5552 00001614 fe078ce3 beq              x15, x0, -8         x15:00000000
           222880000            5555 0000160c 00072783 lw               x15, 0(x14)         x15=00000020 x14:1a100014  PA:1a100014
           223120000            5561 00001610 0407f793 andi             x15, x15, 64        x15=00000000 x15:00000020
           223160000            5562 00001614 fe078ce3 beq              x15, x0, -8         x15:00000000
           223280000            5565 0000160c 00072783 lw               x15, 0(x14)         x15=00000020 x14:1a100014  PA:1a100014
           223520000            5571 00001610 0407f793 andi             x15, x15, 64        x15=00000000 x15:00000020
           223560000            5572 00001614 fe078ce3 beq              x15, x0, -8         x15:00000000
           223680000            5575 0000160c 00072783 lw               x15, 0(x14)         x15=00000020 x14:1a100014  PA:1a100014
           223920000            5581 00001610 0407f793 andi             x15, x15, 64        x15=00000000 x15:00000020
           223960000            5582 00001614 fe078ce3 beq              x15, x0, -8         x15:00000000
           224080000            5585 0000160c 00072783 lw               x15, 0(x14)         x15=00000020 x14:1a100014  PA:1a100014
           224320000            5591 00001610 0407f793 andi             x15, x15, 64        x15=00000000 x15:00000020
           224360000            5592 00001614 fe078ce3 beq              x15, x0, -8         x15:00000000
           224480000            5595 0000160c 00072783 lw               x15, 0(x14)         x15=00000020 x14:1a100014  PA:1a100014
           224720000            5601 00001610 0407f793 andi             x15, x15, 64        x15=00000000 x15:00000020
           224760000            5602 00001614 fe078ce3 beq              x15, x0, -8         x15:00000000
           224880000            5605 0000160c 00072783 lw               x15, 0(x14)         x15=00000020 x14:1a100014  PA:1a100014
           225120000            5611 00001610 0407f793 andi             x15, x15, 64        x15=00000000 x15:00000020
           225160000            5612 00001614 fe078ce3 beq              x15, x0, -8         x15:00000000
           225280000            5615 0000160c 00072783 lw               x15, 0(x14)         x15=00000020 x14:1a100014  PA:1a100014
           225520000            5621 00001610 0407f793 andi             x15, x15, 64        x15=00000000 x15:00000020
           225560000            5622 00001614 fe078ce3 beq              x15, x0, -8         x15:00000000
           225680000            5625 0000160c 00072783 lw               x15, 0(x14)         x15=00000020 x14:1a100014  PA:1a100014
           225920000            5631 00001610 0407f793 andi             x15, x15, 64        x15=00000000 x15:00000020
           225960000            5632 00001614 fe078ce3 beq              x15, x0, -8         x15:00000000
           226080000            5635 0000160c 00072783 lw               x15, 0(x14)         x15=00000020 x14:1a100014  PA:1a100014
           226320000            5641 00001610 0407f793 andi             x15, x15, 64        x15=00000000 x15:00000020
           226360000            5642 00001614 fe078ce3 beq              x15, x0, -8         x15:00000000
           226480000            5645 0000160c 00072783 lw               x15, 0(x14)         x15=00000020 x14:1a100014  PA:1a100014
           226720000            5651 00001610 0407f793 andi             x15, x15, 64        x15=00000000 x15:00000020
           226760000            5652 00001614 fe078ce3 beq              x15, x0, -8         x15:00000000
           226880000            5655 0000160c 00072783 lw               x15, 0(x14)         x15=00000020 x14:1a100014  PA:1a100014
           227120000            5661 00001610 0407f793 andi             x15, x15, 64        x15=00000000 x15:00000020
           227160000            5662 00001614 fe078ce3 beq              x15, x0, -8         x15:00000000
           227280000            5665 0000160c 00072783 lw               x15, 0(x14)         x15=00000020 x14:1a100014  PA:1a100014
           227520000            5671 00001610 0407f793 andi             x15, x15, 64        x15=00000000 x15:00000020
           227560000            5672 00001614 fe078ce3 beq              x15, x0, -8         x15:00000000
           227680000            5675 0000160c 00072783 lw               x15, 0(x14)         x15=00000020 x14:1a100014  PA:1a100014
           227920000            5681 00001610 0407f793 andi             x15, x15, 64        x15=00000000 x15:00000020
           227960000            5682 00001614 fe078ce3 beq              x15, x0, -8         x15:00000000
           228080000            5685 0000160c 00072783 lw               x15, 0(x14)         x15=00000020 x14:1a100014  PA:1a100014
           228320000            5691 00001610 0407f793 andi             x15, x15, 64        x15=00000000 x15:00000020
           228360000            5692 00001614 fe078ce3 beq              x15, x0, -8         x15:00000000
           228480000            5695 0000160c 00072783 lw               x15, 0(x14)         x15=00000020 x14:1a100014  PA:1a100014
           228720000            5701 00001610 0407f793 andi             x15, x15, 64        x15=00000000 x15:00000020
           228760000            5702 00001614 fe078ce3 beq              x15, x0, -8         x15:00000000
           228880000            5705 0000160c 00072783 lw               x15, 0(x14)         x15=00000020 x14:1a100014  PA:1a100014
           229120000            5711 00001610 0407f793 andi             x15, x15, 64        x15=00000000 x15:00000020
           229160000            5712 00001614 fe078ce3 beq              x15, x0, -8         x15:00000000
           229280000            5715 0000160c 00072783 lw               x15, 0(x14)         x15=00000020 x14:1a100014  PA:1a100014
           229520000            5721 00001610 0407f793 andi             x15, x15, 64        x15=00000000 x15:00000020
           229560000            5722 00001614 fe078ce3 beq              x15, x0, -8         x15:00000000
           229680000            5725 0000160c 00072783 lw               x15, 0(x14)         x15=00000020 x14:1a100014  PA:1a100014
           229920000            5731 00001610 0407f793 andi             x15, x15, 64        x15=00000000 x15:00000020
           229960000            5732 00001614 fe078ce3 beq              x15, x0, -8         x15:00000000
           230080000            5735 0000160c 00072783 lw               x15, 0(x14)         x15=00000020 x14:1a100014  PA:1a100014
           230320000            5741 00001610 0407f793 andi             x15, x15, 64        x15=00000000 x15:00000020
           230360000            5742 00001614 fe078ce3 beq              x15, x0, -8         x15:00000000
           230480000            5745 0000160c 00072783 lw               x15, 0(x14)         x15=00000020 x14:1a100014  PA:1a100014
           230720000            5751 00001610 0407f793 andi             x15, x15, 64        x15=00000000 x15:00000020
           230760000            5752 00001614 fe078ce3 beq              x15, x0, -8         x15:00000000
           230880000            5755 0000160c 00072783 lw               x15, 0(x14)         x15=00000020 x14:1a100014  PA:1a100014
           231120000            5761 00001610 0407f793 andi             x15, x15, 64        x15=00000000 x15:00000020
           231160000            5762 00001614 fe078ce3 beq              x15, x0, -8         x15:00000000
           231280000            5765 0000160c 00072783 lw               x15, 0(x14)         x15=00000020 x14:1a100014  PA:1a100014
           231520000            5771 00001610 0407f793 andi             x15, x15, 64        x15=00000000 x15:00000020
           231560000            5772 00001614 fe078ce3 beq              x15, x0, -8         x15:00000000
           231680000            5775 0000160c 00072783 lw               x15, 0(x14)         x15=00000020 x14:1a100014  PA:1a100014
           231920000            5781 00001610 0407f793 andi             x15, x15, 64        x15=00000000 x15:00000020
           231960000            5782 00001614 fe078ce3 beq              x15, x0, -8         x15:00000000
           232080000            5785 0000160c 00072783 lw               x15, 0(x14)         x15=00000020 x14:1a100014  PA:1a100014
           232320000            5791 00001610 0407f793 andi             x15, x15, 64        x15=00000000 x15:00000020
           232360000            5792 00001614 fe078ce3 beq              x15, x0, -8         x15:00000000
           232480000            5795 0000160c 00072783 lw               x15, 0(x14)         x15=00000020 x14:1a100014  PA:1a100014
           232720000            5801 00001610 0407f793 andi             x15, x15, 64        x15=00000000 x15:00000020
           232760000            5802 00001614 fe078ce3 beq              x15, x0, -8         x15:00000000
           232880000            5805 0000160c 00072783 lw               x15, 0(x14)         x15=00000020 x14:1a100014  PA:1a100014
           233120000            5811 00001610 0407f793 andi             x15, x15, 64        x15=00000000 x15:00000020
           233160000            5812 00001614 fe078ce3 beq              x15, x0, -8         x15:00000000
           233280000            5815 0000160c 00072783 lw               x15, 0(x14)         x15=00000020 x14:1a100014  PA:1a100014
           233520000            5821 00001610 0407f793 andi             x15, x15, 64        x15=00000000 x15:00000020
           233560000            5822 00001614 fe078ce3 beq              x15, x0, -8         x15:00000000
           233680000            5825 0000160c 00072783 lw               x15, 0(x14)         x15=00000020 x14:1a100014  PA:1a100014
           233920000            5831 00001610 0407f793 andi             x15, x15, 64        x15=00000000 x15:00000020
           233960000            5832 00001614 fe078ce3 beq              x15, x0, -8         x15:00000000
           234080000            5835 0000160c 00072783 lw               x15, 0(x14)         x15=00000020 x14:1a100014  PA:1a100014
           234320000            5841 00001610 0407f793 andi             x15, x15, 64        x15=00000000 x15:00000020
           234360000            5842 00001614 fe078ce3 beq              x15, x0, -8         x15:00000000
           234480000            5845 0000160c 00072783 lw               x15, 0(x14)         x15=00000020 x14:1a100014  PA:1a100014
           234720000            5851 00001610 0407f793 andi             x15, x15, 64        x15=00000000 x15:00000020
           234760000            5852 00001614 fe078ce3 beq              x15, x0, -8         x15:00000000
           234880000            5855 0000160c 00072783 lw               x15, 0(x14)         x15=00000020 x14:1a100014  PA:1a100014
           235120000            5861 00001610 0407f793 andi             x15, x15, 64        x15=00000000 x15:00000020
           235160000            5862 00001614 fe078ce3 beq              x15, x0, -8         x15:00000000
           235280000            5865 0000160c 00072783 lw               x15, 0(x14)         x15=00000020 x14:1a100014  PA:1a100014
           235520000            5871 00001610 0407f793 andi             x15, x15, 64        x15=00000000 x15:00000020
           235560000            5872 00001614 fe078ce3 beq              x15, x0, -8         x15:00000000
           235680000            5875 0000160c 00072783 lw               x15, 0(x14)         x15=00000020 x14:1a100014  PA:1a100014
           235920000            5881 00001610 0407f793 andi             x15, x15, 64        x15=00000000 x15:00000020
           235960000            5882 00001614 fe078ce3 beq              x15, x0, -8         x15:00000000
           236080000            5885 0000160c 00072783 lw               x15, 0(x14)         x15=00000020 x14:1a100014  PA:1a100014
           236320000            5891 00001610 0407f793 andi             x15, x15, 64        x15=00000000 x15:00000020
           236360000            5892 00001614 fe078ce3 beq              x15, x0, -8         x15:00000000
           236480000            5895 0000160c 00072783 lw               x15, 0(x14)         x15=00000020 x14:1a100014  PA:1a100014
           236720000            5901 00001610 0407f793 andi             x15, x15, 64        x15=00000000 x15:00000020
           236760000            5902 00001614 fe078ce3 beq              x15, x0, -8         x15:00000000
           236880000            5905 0000160c 00072783 lw               x15, 0(x14)         x15=00000020 x14:1a100014  PA:1a100014
           237120000            5911 00001610 0407f793 andi             x15, x15, 64        x15=00000000 x15:00000020
           237160000            5912 00001614 fe078ce3 beq              x15, x0, -8         x15:00000000
           237280000            5915 0000160c 00072783 lw               x15, 0(x14)         x15=00000020 x14:1a100014  PA:1a100014
           237520000            5921 00001610 0407f793 andi             x15, x15, 64        x15=00000000 x15:00000020
           237560000            5922 00001614 fe078ce3 beq              x15, x0, -8         x15:00000000
           237680000            5925 0000160c 00072783 lw               x15, 0(x14)         x15=00000020 x14:1a100014  PA:1a100014
           237920000            5931 00001610 0407f793 andi             x15, x15, 64        x15=00000000 x15:00000020
           237960000            5932 00001614 fe078ce3 beq              x15, x0, -8         x15:00000000
           238080000            5935 0000160c 00072783 lw               x15, 0(x14)         x15=00000020 x14:1a100014  PA:1a100014
           238320000            5941 00001610 0407f793 andi             x15, x15, 64        x15=00000000 x15:00000020
           238360000            5942 00001614 fe078ce3 beq              x15, x0, -8         x15:00000000
           238480000            5945 0000160c 00072783 lw               x15, 0(x14)         x15=00000020 x14:1a100014  PA:1a100014
           238720000            5951 00001610 0407f793 andi             x15, x15, 64        x15=00000000 x15:00000020
           238760000            5952 00001614 fe078ce3 beq              x15, x0, -8         x15:00000000
           238880000            5955 0000160c 00072783 lw               x15, 0(x14)         x15=00000020 x14:1a100014  PA:1a100014
           239120000            5961 00001610 0407f793 andi             x15, x15, 64        x15=00000000 x15:00000020
           239160000            5962 00001614 fe078ce3 beq              x15, x0, -8         x15:00000000
           239280000            5965 0000160c 00072783 lw               x15, 0(x14)         x15=00000020 x14:1a100014  PA:1a100014
           239520000            5971 00001610 0407f793 andi             x15, x15, 64        x15=00000000 x15:00000020
           239560000            5972 00001614 fe078ce3 beq              x15, x0, -8         x15:00000000
           239680000            5975 0000160c 00072783 lw               x15, 0(x14)         x15=00000020 x14:1a100014  PA:1a100014
           239920000            5981 00001610 0407f793 andi             x15, x15, 64        x15=00000000 x15:00000020
           239960000            5982 00001614 fe078ce3 beq              x15, x0, -8         x15:00000000
           240080000            5985 0000160c 00072783 lw               x15, 0(x14)         x15=00000020 x14:1a100014  PA:1a100014
           240320000            5991 00001610 0407f793 andi             x15, x15, 64        x15=00000000 x15:00000020
           240360000            5992 00001614 fe078ce3 beq              x15, x0, -8         x15:00000000
           240480000            5995 0000160c 00072783 lw               x15, 0(x14)         x15=00000020 x14:1a100014  PA:1a100014
           240720000            6001 00001610 0407f793 andi             x15, x15, 64        x15=00000000 x15:00000020
           240760000            6002 00001614 fe078ce3 beq              x15, x0, -8         x15:00000000
           240880000            6005 0000160c 00072783 lw               x15, 0(x14)         x15=00000020 x14:1a100014  PA:1a100014
           241120000            6011 00001610 0407f793 andi             x15, x15, 64        x15=00000000 x15:00000020
           241160000            6012 00001614 fe078ce3 beq              x15, x0, -8         x15:00000000
           241280000            6015 0000160c 00072783 lw               x15, 0(x14)         x15=00000020 x14:1a100014  PA:1a100014
           241520000            6021 00001610 0407f793 andi             x15, x15, 64        x15=00000000 x15:00000020
           241560000            6022 00001614 fe078ce3 beq              x15, x0, -8         x15:00000000
           241680000            6025 0000160c 00072783 lw               x15, 0(x14)         x15=00000020 x14:1a100014  PA:1a100014
           241920000            6031 00001610 0407f793 andi             x15, x15, 64        x15=00000000 x15:00000020
           241960000            6032 00001614 fe078ce3 beq              x15, x0, -8         x15:00000000
           242080000            6035 0000160c 00072783 lw               x15, 0(x14)         x15=00000020 x14:1a100014  PA:1a100014
           242320000            6041 00001610 0407f793 andi             x15, x15, 64        x15=00000000 x15:00000020
           242360000            6042 00001614 fe078ce3 beq              x15, x0, -8         x15:00000000
           242480000            6045 0000160c 00072783 lw               x15, 0(x14)         x15=00000020 x14:1a100014  PA:1a100014
           242720000            6051 00001610 0407f793 andi             x15, x15, 64        x15=00000000 x15:00000020
           242760000            6052 00001614 fe078ce3 beq              x15, x0, -8         x15:00000000
           242880000            6055 0000160c 00072783 lw               x15, 0(x14)         x15=00000020 x14:1a100014  PA:1a100014
           243120000            6061 00001610 0407f793 andi             x15, x15, 64        x15=00000000 x15:00000020
           243160000            6062 00001614 fe078ce3 beq              x15, x0, -8         x15:00000000
           243280000            6065 0000160c 00072783 lw               x15, 0(x14)         x15=00000020 x14:1a100014  PA:1a100014
           243520000            6071 00001610 0407f793 andi             x15, x15, 64        x15=00000000 x15:00000020
           243560000            6072 00001614 fe078ce3 beq              x15, x0, -8         x15:00000000
           243680000            6075 0000160c 00072783 lw               x15, 0(x14)         x15=00000020 x14:1a100014  PA:1a100014
           243920000            6081 00001610 0407f793 andi             x15, x15, 64        x15=00000000 x15:00000020
           243960000            6082 00001614 fe078ce3 beq              x15, x0, -8         x15:00000000
           244080000            6085 0000160c 00072783 lw               x15, 0(x14)         x15=00000020 x14:1a100014  PA:1a100014
           244320000            6091 00001610 0407f793 andi             x15, x15, 64        x15=00000000 x15:00000020
           244360000            6092 00001614 fe078ce3 beq              x15, x0, -8         x15:00000000
           244480000            6095 0000160c 00072783 lw               x15, 0(x14)         x15=00000020 x14:1a100014  PA:1a100014
           244720000            6101 00001610 0407f793 andi             x15, x15, 64        x15=00000000 x15:00000020
           244760000            6102 00001614 fe078ce3 beq              x15, x0, -8         x15:00000000
           244880000            6105 0000160c 00072783 lw               x15, 0(x14)         x15=00000020 x14:1a100014  PA:1a100014
           245120000            6111 00001610 0407f793 andi             x15, x15, 64        x15=00000000 x15:00000020
           245160000            6112 00001614 fe078ce3 beq              x15, x0, -8         x15:00000000
           245280000            6115 0000160c 00072783 lw               x15, 0(x14)         x15=00000020 x14:1a100014  PA:1a100014
           245520000            6121 00001610 0407f793 andi             x15, x15, 64        x15=00000000 x15:00000020
           245560000            6122 00001614 fe078ce3 beq              x15, x0, -8         x15:00000000
           245680000            6125 0000160c 00072783 lw               x15, 0(x14)         x15=00000020 x14:1a100014  PA:1a100014
           245920000            6131 00001610 0407f793 andi             x15, x15, 64        x15=00000000 x15:00000020
           245960000            6132 00001614 fe078ce3 beq              x15, x0, -8         x15:00000000
           246080000            6135 0000160c 00072783 lw               x15, 0(x14)         x15=00000020 x14:1a100014  PA:1a100014
           246320000            6141 00001610 0407f793 andi             x15, x15, 64        x15=00000000 x15:00000020
           246360000            6142 00001614 fe078ce3 beq              x15, x0, -8         x15:00000000
           246480000            6145 0000160c 00072783 lw               x15, 0(x14)         x15=00000020 x14:1a100014  PA:1a100014
           246720000            6151 00001610 0407f793 andi             x15, x15, 64        x15=00000000 x15:00000020
           246760000            6152 00001614 fe078ce3 beq              x15, x0, -8         x15:00000000
           246880000            6155 0000160c 00072783 lw               x15, 0(x14)         x15=00000020 x14:1a100014  PA:1a100014
           247120000            6161 00001610 0407f793 andi             x15, x15, 64        x15=00000000 x15:00000020
           247160000            6162 00001614 fe078ce3 beq              x15, x0, -8         x15:00000000
           247280000            6165 0000160c 00072783 lw               x15, 0(x14)         x15=00000020 x14:1a100014  PA:1a100014
           247520000            6171 00001610 0407f793 andi             x15, x15, 64        x15=00000000 x15:00000020
           247560000            6172 00001614 fe078ce3 beq              x15, x0, -8         x15:00000000
           247680000            6175 0000160c 00072783 lw               x15, 0(x14)         x15=00000020 x14:1a100014  PA:1a100014
           247920000            6181 00001610 0407f793 andi             x15, x15, 64        x15=00000000 x15:00000020
           247960000            6182 00001614 fe078ce3 beq              x15, x0, -8         x15:00000000
           248080000            6185 0000160c 00072783 lw               x15, 0(x14)         x15=00000020 x14:1a100014  PA:1a100014
           248320000            6191 00001610 0407f793 andi             x15, x15, 64        x15=00000000 x15:00000020
           248360000            6192 00001614 fe078ce3 beq              x15, x0, -8         x15:00000000
           248480000            6195 0000160c 00072783 lw               x15, 0(x14)         x15=00000020 x14:1a100014  PA:1a100014
           248720000            6201 00001610 0407f793 andi             x15, x15, 64        x15=00000000 x15:00000020
           248760000            6202 00001614 fe078ce3 beq              x15, x0, -8         x15:00000000
           248880000            6205 0000160c 00072783 lw               x15, 0(x14)         x15=00000020 x14:1a100014  PA:1a100014
           249120000            6211 00001610 0407f793 andi             x15, x15, 64        x15=00000000 x15:00000020
           249160000            6212 00001614 fe078ce3 beq              x15, x0, -8         x15:00000000
           249280000            6215 0000160c 00072783 lw               x15, 0(x14)         x15=00000020 x14:1a100014  PA:1a100014
           249520000            6221 00001610 0407f793 andi             x15, x15, 64        x15=00000000 x15:00000020
           249560000            6222 00001614 fe078ce3 beq              x15, x0, -8         x15:00000000
           249680000            6225 0000160c 00072783 lw               x15, 0(x14)         x15=00000020 x14:1a100014  PA:1a100014
           249920000            6231 00001610 0407f793 andi             x15, x15, 64        x15=00000000 x15:00000020
           249960000            6232 00001614 fe078ce3 beq              x15, x0, -8         x15:00000000
           250080000            6235 0000160c 00072783 lw               x15, 0(x14)         x15=00000060 x14:1a100014  PA:1a100014
           250320000            6241 00001610 0407f793 andi             x15, x15, 64        x15=00000040 x15:00000060
           250360000            6242 00001614 fe078ce3 beq              x15, x0, -8         x15:00000040
           250400000            6243 00001618 00008067 jalr             x0, x1, 0            x1:00000150
           250480000            6245 00000150 530010ef jal              x1, 5424             x1=00000154
           250560000            6247 00001680 ff010113 addi             x2, x2, -16          x2=00107ff0  x2:00108000
           250600000            6248 00001684 00112623 sw               x1, 12(x2)           x1:00000154  x2:00107ff0  PA:00107ffc
           250640000            6249 00001688 f95ff0ef jal              x1, -108             x1=0000168c
           250720000            6251 0000161c ff010113 addi             x2, x2, -16          x2=00107fe0  x2:00107ff0
           250760000            6252 00001620 00112623 sw               x1, 12(x2)           x1:0000168c  x2:00107fe0  PA:00107fec
           250800000            6253 00001624 04051663 bne              x10, x0, 76         x10:00000000
           250840000            6254 00001628 1a1077b7 lui              x15, 0x1a107000     x15=1a107000
           250880000            6255 0000162c 0007aa23 sw               x0, 20(x15)         x15:1a107000  PA:1a107014
           250920000            6256 00001630 1a1077b7 lui              x15, 0x1a107000     x15=1a107000
           251160000            6262 00001634 00478793 addi             x15, x15, 4         x15=1a107004 x15:1a107000
           251200000            6263 00001638 0007a703 lw               x14, 0(x15)         x14=ffffffff x15:1a107004  PA:1a107004
           251240000            6264 0000163c 00100593 addi             x11, x0, 1          x11=00000001
           251440000            6269 00001640 c0274733 p.bclr           x14, x14, 0, 2      x14=ffffffff x14:ffffffff
           251480000            6270 00001644 00800513 addi             x10, x0, 8          x10=00000008
           251520000            6271 00001648 00e7a023 sw               x14, 0(x15)         x14:ffffffff x15:1a107004  PA:1a107004
           251560000            6272 0000164c e11ff0ef jal              x1, -496             x1=00001650
           251840000            6279 0000145c 1a1076b7 lui              x13, 0x1a107000     x13=1a107000
           251880000            6280 00001460 0006a783 lw               x15, 0(x13)         x15=00000000 x13:1a107000  PA:1a107000
           251920000            6281 00001464 ff010113 addi             x2, x2, -16          x2=00107fd0  x2:00107fe0
           252120000            6286 00001468 00f12623 sw               x15, 12(x2)         x15:00000000  x2:00107fd0  PA:00107fdc
           252160000            6287 0000146c 00100793 addi             x15, x0, 1          x15=00000001
           252200000            6288 00001470 00a797b3 sll              x15, x15, x10       x15=00000100 x15:00000001 x10:00000008
           252240000            6289 00001474 00c12703 lw               x14, 12(x2)         x14=00000000  x2:00107fd0  PA:00107fdc
           252280000            6290 00001478 fff7c793 xori             x15, x15, -1        x15=fffffeff x15:00000100
           252320000            6291 0000147c 00e7f7b3 and              x15, x15, x14       x15=00000000 x15:fffffeff x14:00000000
           252360000            6292 00001480 00f12623 sw               x15, 12(x2)         x15:00000000  x2:00107fd0  PA:00107fdc
           252400000            6293 00001484 00c12783 lw               x15, 12(x2)         x15=00000000  x2:00107fd0  PA:00107fdc
           252440000            6294 00001488 00a595b3 sll              x11, x11, x10       x11=00000100 x11:00000001 x10:00000008
           252480000            6295 0000148c 00f5e533 or               x10, x11, x15       x10=00000100 x11:00000100 x15:00000000
           252520000            6296 00001490 00a12623 sw               x10, 12(x2)         x10:00000100  x2:00107fd0  PA:00107fdc
           252560000            6297 00001494 00c12783 lw               x15, 12(x2)         x15=00000100  x2:00107fd0  PA:00107fdc
           252640000            6299 00001498 00f6a023 sw               x15, 0(x13)         x15:00000100 x13:1a107000  PA:1a107000
           252680000            6300 0000149c 01010113 addi             x2, x2, 16           x2=00107fe0  x2:00107fd0
           252920000            6306 000014a0 00008067 jalr             x0, x1, 0            x1:00001650
           252960000            6307 00001650 00100593 addi             x11, x0, 1          x11=00000001
           253000000            6308 00001654 00800513 addi             x10, x0, 8          x10=00000008
           253040000            6309 00001658 e4dff0ef jal              x1, -436             x1=0000165c
           253120000            6311 000014a4 1a1017b7 lui              x15, 0x1a101000     x15=1a101000
           253160000            6312 000014a8 0007a783 lw               x15, 0(x15)         x15=00000000 x15:1a101000  PA:1a101000
           253200000            6313 000014ac ff010113 addi             x2, x2, -16          x2=00107fd0  x2:00107fe0
           253400000            6318 000014b0 00f12623 sw               x15, 12(x2)         x15:00000000  x2:00107fd0  PA:00107fdc
           253440000            6319 000014b4 02058663 beq              x11, x0, 44         x11:00000001
           253480000            6320 000014b8 00100713 addi             x14, x0, 1          x14=00000001
           253520000            6321 000014bc 00c12783 lw               x15, 12(x2)         x15=00000000  x2:00107fd0  PA:00107fdc
           253560000            6322 000014c0 00a71533 sll              x10, x14, x10       x10=00000100 x14:00000001 x10:00000008
           253600000            6323 000014c4 00f56533 or               x10, x10, x15       x10=00000100 x10:00000100 x15:00000000
           253640000            6324 000014c8 00a12623 sw               x10, 12(x2)         x10:00000100  x2:00107fd0  PA:00107fdc
           253680000            6325 000014cc 00c12703 lw               x14, 12(x2)         x14=00000100  x2:00107fd0  PA:00107fdc
           253720000            6326 000014d0 1a1017b7 lui              x15, 0x1a101000     x15=1a101000
           253760000            6327 000014d4 00e7a023 sw               x14, 0(x15)         x14:00000100 x15:1a101000  PA:1a101000
           253800000            6328 000014d8 01010113 addi             x2, x2, 16           x2=00107fe0  x2:00107fd0
           254040000            6334 000014dc 00008067 jalr             x0, x1, 0            x1:0000165c
           254080000            6335 0000165c 00c12083 lw               x1, 12(x2)           x1=0000168c  x2:00107fe0  PA:00107fec
           254120000            6336 00001660 00100593 addi             x11, x0, 1          x11=00000001
           254160000            6337 00001664 00800513 addi             x10, x0, 8          x10=00000008
           254200000            6338 00001668 01010113 addi             x2, x2, 16           x2=00107ff0  x2:00107fe0
           254240000            6339 0000166c ea1ff06f jal              x0, -352           
           254320000            6341 0000150c 1a1017b7 lui              x15, 0x1a101000     x15=1a101000
           254360000            6342 00001510 ff010113 addi             x2, x2, -16          x2=00107fe0  x2:00107ff0
           254400000            6343 00001514 0087a783 lw               x15, 8(x15)         x15=00000000 x15:1a101000  PA:1a101008
           254640000            6349 00001518 00f12623 sw               x15, 12(x2)         x15:00000000  x2:00107fe0  PA:00107fec
           254680000            6350 0000151c 02058663 beq              x11, x0, 44         x11:00000001
           254720000            6351 00001520 00100713 addi             x14, x0, 1          x14=00000001
           254760000            6352 00001524 00c12783 lw               x15, 12(x2)         x15=00000000  x2:00107fe0  PA:00107fec
           254800000            6353 00001528 00a71533 sll              x10, x14, x10       x10=00000100 x14:00000001 x10:00000008
           254840000            6354 0000152c 00f56533 or               x10, x10, x15       x10=00000100 x10:00000100 x15:00000000
           254880000            6355 00001530 00a12623 sw               x10, 12(x2)         x10:00000100  x2:00107fe0  PA:00107fec
           254920000            6356 00001534 00c12703 lw               x14, 12(x2)         x14=00000100  x2:00107fe0  PA:00107fec
           254960000            6357 00001538 1a1017b7 lui              x15, 0x1a101000     x15=1a101000
           255000000            6358 0000153c 00e7a423 sw               x14, 8(x15)         x14:00000100 x15:1a101000  PA:1a101008
           255040000            6359 00001540 01010113 addi             x2, x2, 16           x2=00107ff0  x2:00107fe0
           255280000            6365 00001544 00008067 jalr             x0, x1, 0            x1:0000168c
           255320000            6366 0000168c 0000006f jal              x0, 0              
           255400000            6368 0000168c 0000006f jal              x0, 0              
           255480000            6370 0000168c 0000006f jal              x0, 0              
           255560000            6372 0000168c 0000006f jal              x0, 0              
           255640000            6374 0000168c 0000006f jal              x0, 0              
           255720000            6376 0000168c 0000006f jal              x0, 0              
           255800000            6378 0000168c 0000006f jal              x0, 0              
           255880000            6380 0000168c 0000006f jal              x0, 0              
           255960000            6382 0000168c 0000006f jal              x0, 0              
           256040000            6384 0000168c 0000006f jal              x0, 0              
           256120000            6386 0000168c 0000006f jal              x0, 0              
           256200000            6388 0000168c 0000006f jal              x0, 0              
           256280000            6390 0000168c 0000006f jal              x0, 0              
           256360000            6392 0000168c 0000006f jal              x0, 0              
           256440000            6394 0000168c 0000006f jal              x0, 0              
           256520000            6396 0000168c 0000006f jal              x0, 0              
           256600000            6398 0000168c 0000006f jal              x0, 0              
           256680000            6400 0000168c 0000006f jal              x0, 0              
           256760000            6402 0000168c 0000006f jal              x0, 0              
           256840000            6404 0000168c 0000006f jal              x0, 0              
           256920000            6406 0000168c 0000006f jal              x0, 0              
           257000000            6408 0000168c 0000006f jal              x0, 0              
           257080000            6410 0000168c 0000006f jal              x0, 0              
           257160000            6412 0000168c 0000006f jal              x0, 0              
           257240000            6414 0000168c 0000006f jal              x0, 0              
           257320000            6416 0000168c 0000006f jal              x0, 0              
           257400000            6418 0000168c 0000006f jal              x0, 0              
           257480000            6420 0000168c 0000006f jal              x0, 0              
           257560000            6422 0000168c 0000006f jal              x0, 0              
           257640000            6424 0000168c 0000006f jal              x0, 0              
           257720000            6426 0000168c 0000006f jal              x0, 0              
           257800000            6428 0000168c 0000006f jal              x0, 0              
           257880000            6430 0000168c 0000006f jal              x0, 0              
           257960000            6432 0000168c 0000006f jal              x0, 0              
           258040000            6434 0000168c 0000006f jal              x0, 0              
           258120000            6436 0000168c 0000006f jal              x0, 0              
           258200000            6438 0000168c 0000006f jal              x0, 0              
           258280000            6440 0000168c 0000006f jal              x0, 0              
           258360000            6442 0000168c 0000006f jal              x0, 0              
           258440000            6444 0000168c 0000006f jal              x0, 0              
           258520000            6446 0000168c 0000006f jal              x0, 0              
           258600000            6448 0000168c 0000006f jal              x0, 0              
           258680000            6450 0000168c 0000006f jal              x0, 0              
           258760000            6452 0000168c 0000006f jal              x0, 0              
           258840000            6454 0000168c 0000006f jal              x0, 0              
           258920000            6456 0000168c 0000006f jal              x0, 0              
           259000000            6458 0000168c 0000006f jal              x0, 0              
           259080000            6460 0000168c 0000006f jal              x0, 0              
           259160000            6462 0000168c 0000006f jal              x0, 0              
           259240000            6464 0000168c 0000006f jal              x0, 0              
           259320000            6466 0000168c 0000006f jal              x0, 0              
           259400000            6468 0000168c 0000006f jal              x0, 0              
           259480000            6470 0000168c 0000006f jal              x0, 0              
           259560000            6472 0000168c 0000006f jal              x0, 0              
           259640000            6474 0000168c 0000006f jal              x0, 0              
           259720000            6476 0000168c 0000006f jal              x0, 0              
           259800000            6478 0000168c 0000006f jal              x0, 0              
           259880000            6480 0000168c 0000006f jal              x0, 0              
           259960000            6482 0000168c 0000006f jal              x0, 0              
           260040000            6484 0000168c 0000006f jal              x0, 0              
           260120000            6486 0000168c 0000006f jal              x0, 0              
           260200000            6488 0000168c 0000006f jal              x0, 0              
           260280000            6490 0000168c 0000006f jal              x0, 0              
           260360000            6492 0000168c 0000006f jal              x0, 0              
           260440000            6494 0000168c 0000006f jal              x0, 0              
           260520000            6496 0000168c 0000006f jal              x0, 0              
